ARM GAS  /cygdrive/c/DOCUME~1/witaj/USTAWI~1/Temp/cciROU7y.s 			page 1


   1              		.code	16
   2              		.file	"bt.c"
   3              		.section	.debug_abbrev,"",%progbits
   4              	.Ldebug_abbrev0:
   5              		.section	.debug_info,"",%progbits
   6              	.Ldebug_info0:
   7              		.section	.debug_line,"",%progbits
   8              	.Ldebug_line0:
   9 0000 B8000000 		.text
   9      02007A00 
   9      00000201 
   9      FB0E0D00 
   9      01010101 
  10              	.Ltext0:
  11              		.align	2
  12              		.global	initBtProc
  13              		.code 16
  14              		.thumb_func
  15              		.type	initBtProc, %function
  16              	initBtProc:
  17              	.LFB2:
  18              		.file 1 "bt.c"
   1:bt.c          **** /******************************************************************************
   2:bt.c          ****  *
   3:bt.c          ****  * Copyright:
   4:bt.c          ****  *    (C) 2006 Embedded Artists AB
   5:bt.c          ****  *
   6:bt.c          ****  * File:
   7:bt.c          ****  *    bt.c
   8:bt.c          ****  *
   9:bt.c          ****  * Description:
  10:bt.c          ****  *    Demonstrate communication with the Philips Bluetooth module, BGB203-S06
  11:bt.c          ****  *
  12:bt.c          ****  *****************************************************************************/
  13:bt.c          ****  
  14:bt.c          **** /******************************************************************************
  15:bt.c          ****  * Includes
  16:bt.c          ****  *****************************************************************************/
  17:bt.c          **** #include "../pre_emptive_os/api/osapi.h"
  18:bt.c          **** #include "../pre_emptive_os/api/general.h"
  19:bt.c          **** #include <printf_P.h>
  20:bt.c          **** #include <ea_init.h>
  21:bt.c          **** #include <stdlib.h>
  22:bt.c          **** #include <string.h>
  23:bt.c          **** #include "lcd.h"
  24:bt.c          **** #include "key.h"
  25:bt.c          **** #include "uart.h"
  26:bt.c          **** #include "hw.h"
  27:bt.c          **** #include "select.h"
  28:bt.c          **** 
  29:bt.c          **** /******************************************************************************
  30:bt.c          ****  * Typedefs and defines
  31:bt.c          ****  *****************************************************************************/
  32:bt.c          **** #define RECV_BUF_LEN 32
  33:bt.c          **** #define PROC_BT_STACK_SIZE 800
  34:bt.c          **** 
  35:bt.c          **** #define BT_BACKGROUND_COLOR     0x01
ARM GAS  /cygdrive/c/DOCUME~1/witaj/USTAWI~1/Temp/cciROU7y.s 			page 2


  36:bt.c          **** #define BT_BACKBACKGROUND_COLOR 0x03
  37:bt.c          **** 
  38:bt.c          **** #define MAX_BT_UNITS 5
  39:bt.c          **** 
  40:bt.c          **** typedef struct
  41:bt.c          **** {
  42:bt.c          ****   tU8 active;
  43:bt.c          ****   tU8 btAddress[13];
  44:bt.c          ****   tU8 btName[17];
  45:bt.c          **** } tBtRecord;
  46:bt.c          **** 
  47:bt.c          **** 
  48:bt.c          **** /*****************************************************************************
  49:bt.c          ****  * Local variables
  50:bt.c          ****  ****************************************************************************/
  51:bt.c          **** static tU8 procBtStack[PROC_BT_STACK_SIZE];
  52:bt.c          **** static tU8 pidBt;
  53:bt.c          **** 
  54:bt.c          **** static volatile tBool stopRecvProc = FALSE;
  55:bt.c          **** static tCntSem recvSem;
  56:bt.c          **** 
  57:bt.c          **** static tU8 btCursor = 0;
  58:bt.c          **** 
  59:bt.c          **** static tBool btSleepState = FALSE;
  60:bt.c          **** static tBool btCommandMode = FALSE;
  61:bt.c          **** 
  62:bt.c          **** static tU8 localName[17];
  63:bt.c          **** static tU8 btAddress[13];
  64:bt.c          **** 
  65:bt.c          **** static tBtRecord foundBtUnits[MAX_BT_UNITS];
  66:bt.c          **** 
  67:bt.c          **** 
  68:bt.c          **** /*****************************************************************************
  69:bt.c          ****  * External variables
  70:bt.c          ****  ****************************************************************************/
  71:bt.c          **** extern volatile tU32 ms;
  72:bt.c          **** 
  73:bt.c          **** 
  74:bt.c          **** /*****************************************************************************
  75:bt.c          ****  * Local function prototype
  76:bt.c          ****  ****************************************************************************/
  77:bt.c          **** static void procBt(void* arg);
  78:bt.c          **** static void btSetMode(tBool commandMode);
  79:bt.c          **** 
  80:bt.c          **** 
  81:bt.c          **** /*****************************************************************************
  82:bt.c          ****  *
  83:bt.c          ****  * Description:
  84:bt.c          ****  *    Initialize and start a process handling the BGB203-S06 communication
  85:bt.c          ****  *    (over UART channel #1).
  86:bt.c          ****  *
  87:bt.c          ****  ****************************************************************************/
  88:bt.c          **** void
  89:bt.c          **** initBtProc(void)
  90:bt.c          **** {
  19              		.loc 1 90 0
  20 0000 30B5     		push	{r4, r5, lr}
ARM GAS  /cygdrive/c/DOCUME~1/witaj/USTAWI~1/Temp/cciROU7y.s 			page 3


  21              	.LCFI0:
  22 0002 84B0     		sub	sp, sp, #16
  23              	.LCFI1:
  91:bt.c          ****   tU8 error;
  92:bt.c          ****   
  93:bt.c          ****   osSemInit(&recvSem, 1);
  24              		.loc 1 93 0
  25 0004 0D48     		ldr	r0, .L3
  26 0006 0121     		mov	r1, #1
  27 0008 FFF7FEFF 		bl	osSemInit
  94:bt.c          **** 
  95:bt.c          ****   osCreateProcess(procBt, procBtStack, PROC_BT_STACK_SIZE, &pidBt, 4, NULL, &error);
  28              		.loc 1 95 0
  29 000c 0C4D     		ldr	r5, .L3+4
  30 000e 0423     		mov	r3, #4
  31 0010 0093     		str	r3, [sp]
  32 0012 6C46     		mov	r4, sp
  33 0014 0023     		mov	r3, #0
  34 0016 C822     		mov	r2, #200
  35 0018 9200     		lsl	r2, r2, #2
  36 001a 0193     		str	r3, [sp, #4]
  37 001c 0F34     		add	r4, r4, #15
  38 001e 2B1C     		mov	r3, r5
  39 0020 0848     		ldr	r0, .L3+8
  40 0022 0949     		ldr	r1, .L3+12
  41 0024 0294     		str	r4, [sp, #8]
  42 0026 FFF7FEFF 		bl	osCreateProcess
  96:bt.c          ****   osStartProcess(pidBt, &error);
  43              		.loc 1 96 0
  44 002a 2878     		ldrb	r0, [r5]
  45 002c 211C     		mov	r1, r4
  46 002e FFF7FEFF 		bl	osStartProcess
  97:bt.c          **** }
  47              		.loc 1 97 0
  48 0032 04B0     		add	sp, sp, #16
  49              		@ sp needed for prologue
  50 0034 30BC     		pop	{r4, r5}
  51 0036 01BC     		pop	{r0}
  52 0038 0047     		bx	r0
  53              	.L4:
  54 003a 0000     		.align	2
  55              	.L3:
  56 003c 24030000 		.word	recvSem
  57 0040 21030000 		.word	pidBt
  58 0044 00000000 		.word	procBt
  59 0048 01000000 		.word	procBtStack
  60              	.LFE2:
  61              		.size	initBtProc, .-initBtProc
  62              		.section	.rodata.str1.4,"aMS",%progbits,1
  63              		.align	2
  64              	.LC4:
  65 0000 2B2B2B00 		.ascii	"+++\000"
  66              		.align	2
  67              	.LC6:
  68 0004 4154490D 		.ascii	"ATI\015\000"
  68      00
  69 0009 000000   		.align	2
ARM GAS  /cygdrive/c/DOCUME~1/witaj/USTAWI~1/Temp/cciROU7y.s 			page 4


  70              	.LC8:
  71 000c 41542B42 		.ascii	"AT+BTLNM\015\000"
  71      544C4E4D 
  71      0D00
  72 0016 0000     		.align	2
  73              	.LC10:
  74 0018 41542B42 		.ascii	"AT+BTBDA\015\000"
  74      54424441 
  74      0D00
  75 0022 0000     		.align	2
  76              	.LC12:
  77 0024 41542B42 		.ascii	"AT+BTINQ=5\015\000"
  77      54494E51 
  77      3D350D00 
  78              		.align	2
  79              	.LC14:
  80 0030 41542B42 		.ascii	"AT+BTSRV=1\015\000"
  80      54535256 
  80      3D310D00 
  81              		.align	2
  82              	.LC17:
  83 003c 256300   		.ascii	"%c\000"
  84 003f 00       		.text
  85              		.align	2
  86              		.code 16
  87              		.thumb_func
  88              		.type	procBt, %function
  89              	procBt:
  90              	.LFB3:
  98:bt.c          **** 
  99:bt.c          **** 
 100:bt.c          **** /*****************************************************************************
 101:bt.c          ****  *
 102:bt.c          ****  * Description:
 103:bt.c          ****  *    A process entry function - the BGb203-S06 handling process
 104:bt.c          ****  *
 105:bt.c          ****  * Params:
 106:bt.c          ****  *    [in] arg - This parameter is not used in this application. 
 107:bt.c          ****  *
 108:bt.c          ****  ****************************************************************************/
 109:bt.c          **** static void
 110:bt.c          **** procBt(void* arg)
 111:bt.c          **** {
  91              		.loc 1 111 0
  92 004c 30B5     		push	{r4, r5, lr}
  93              	.LCFI2:
  94              	.LVL0:
  95 004e 81B0     		sub	sp, sp, #4
  96              	.LCFI3:
 112:bt.c          ****   tU8 error;
 113:bt.c          **** 
 114:bt.c          ****   //reset BGB203 modules
 115:bt.c          ****   resetBT(TRUE);
  97              		.loc 1 115 0
  98 0050 0120     		mov	r0, #1
  99              	.LVL1:
 100 0052 FFF7FEFF 		bl	resetBT
ARM GAS  /cygdrive/c/DOCUME~1/witaj/USTAWI~1/Temp/cciROU7y.s 			page 5


 116:bt.c          ****   osSleep(2);
 101              		.loc 1 116 0
 102 0056 0220     		mov	r0, #2
 103 0058 FFF7FEFF 		bl	osSleep
 117:bt.c          ****   resetBT(FALSE);
 104              		.loc 1 117 0
 105 005c 0020     		mov	r0, #0
 106 005e FFF7FEFF 		bl	resetBT
 118:bt.c          ****   osSleep(5);
 107              		.loc 1 118 0
 108 0062 0520     		mov	r0, #5
 109 0064 FFF7FEFF 		bl	osSleep
 119:bt.c          **** 
 120:bt.c          ****   //extra sleep
 121:bt.c          ****   osSleep(50);
 110              		.loc 1 121 0
 111 0068 3220     		mov	r0, #50
 112 006a FFF7FEFF 		bl	osSleep
 122:bt.c          ****   
 123:bt.c          ****   //initialize uart #1: 115200 kbps, 8N1, FIFO
 124:bt.c          ****   initUart1(B115200((CORE_FREQ) / PBSD), UART_8N1, UART_FIFO_16);
 113              		.loc 1 124 0
 114 006e 0321     		mov	r1, #3
 115 0070 C122     		mov	r2, #193
 116 0072 0820     		mov	r0, #8
 117 0074 FFF7FEFF 		bl	initUart1
 125:bt.c          **** 
 126:bt.c          ****   /***************************************************************************
 127:bt.c          ****    * Startup command sequence
 128:bt.c          ****    *   This command sequence is just used for production testing
 129:bt.c          ****    **************************************************************************/
 130:bt.c          ****   osSleep(50);
 118              		.loc 1 130 0
 119 0078 3220     		mov	r0, #50
 120 007a FFF7FEFF 		bl	osSleep
 131:bt.c          ****   uart1SendString("+++");
 121              		.loc 1 131 0
 122 007e 2748     		ldr	r0, .L23
 123 0080 FFF7FEFF 		bl	uart1SendString
 132:bt.c          ****   osSleep(50);
 124              		.loc 1 132 0
 125 0084 3220     		mov	r0, #50
 126 0086 FFF7FEFF 		bl	osSleep
 133:bt.c          ****   uart1SendString("ATI\r");
 127              		.loc 1 133 0
 128 008a 2548     		ldr	r0, .L23+4
 129 008c FFF7FEFF 		bl	uart1SendString
 134:bt.c          ****   osSleep(50);
 130              		.loc 1 134 0
 131 0090 3220     		mov	r0, #50
 132 0092 FFF7FEFF 		bl	osSleep
 135:bt.c          ****   uart1SendString("AT+BTLNM\r");
 133              		.loc 1 135 0
 134 0096 2348     		ldr	r0, .L23+8
 135 0098 FFF7FEFF 		bl	uart1SendString
 136:bt.c          ****   
 137:bt.c          ****   osSleep(100);
ARM GAS  /cygdrive/c/DOCUME~1/witaj/USTAWI~1/Temp/cciROU7y.s 			page 6


 136              		.loc 1 137 0
 137 009c 6420     		mov	r0, #100
 138 009e FFF7FEFF 		bl	osSleep
 138:bt.c          ****   uart1SendString("AT+BTBDA\r");
 139              		.loc 1 138 0
 140 00a2 2148     		ldr	r0, .L23+12
 141 00a4 FFF7FEFF 		bl	uart1SendString
 139:bt.c          ****   osSleep(100);
 142              		.loc 1 139 0
 143 00a8 6420     		mov	r0, #100
 144 00aa FFF7FEFF 		bl	osSleep
 140:bt.c          ****   uart1SendString("AT+BTINQ=5\r");
 145              		.loc 1 140 0
 146 00ae 1F48     		ldr	r0, .L23+16
 147 00b0 FFF7FEFF 		bl	uart1SendString
 141:bt.c          ****   osSleep(600);
 148              		.loc 1 141 0
 149 00b4 9620     		mov	r0, #150
 150 00b6 8000     		lsl	r0, r0, #2
 151 00b8 FFF7FEFF 		bl	osSleep
 142:bt.c          **** 
 143:bt.c          ****   //Switch to server mode where other BT devices can detect this unit
 144:bt.c          ****   //during an 'inquiry'
 145:bt.c          ****   uart1SendString("AT+BTSRV=1\r");
 152              		.loc 1 145 0
 153 00bc 1C48     		ldr	r0, .L23+20
 154 00be FFF7FEFF 		bl	uart1SendString
 155              	.LVL2:
 156              	.L6:
 146:bt.c          **** 
 147:bt.c          ****   /***************************************************************************
 148:bt.c          ****    * Loop forever and create a terminal directly between the
 149:bt.c          ****    * USB serial port and the BT module
 150:bt.c          ****    **************************************************************************/
 151:bt.c          ****   while(1)
 152:bt.c          ****   {
 153:bt.c          ****     osSemTake(&recvSem, 0, &error);
 157              		.loc 1 153 0
 158 00c2 6A46     		mov	r2, sp
 159 00c4 0021     		mov	r1, #0
 160 00c6 0332     		add	r2, r2, #3
 161 00c8 1A48     		ldr	r0, .L23+24
 162 00ca FFF7FEFF 		bl	osSemTake
 163 00ce 1DE0     		b	.L22
 164              	.L8:
 165              	.LBB2:
 154:bt.c          **** 
 155:bt.c          ****     while (stopRecvProc == FALSE)
 156:bt.c          ****     {
 157:bt.c          ****       tU8 rxChar;
 158:bt.c          ****       tU8 nothing;
 159:bt.c          **** 
 160:bt.c          **** 
 161:bt.c          ****       nothing = TRUE;
 162:bt.c          **** 
 163:bt.c          ****       //check if any character has been received from terminal
 164:bt.c          ****       if (consolGetChar(&rxChar) == TRUE)
ARM GAS  /cygdrive/c/DOCUME~1/witaj/USTAWI~1/Temp/cciROU7y.s 			page 7


 166              		.loc 1 164 0
 167 00d0 6C46     		mov	r4, sp
 168 00d2 0234     		add	r4, r4, #2
 169 00d4 201C     		mov	r0, r4
 170 00d6 FFF7FEFF 		bl	consolGetChar
 171 00da 0128     		cmp	r0, #1
 172 00dc 01D0     		beq	.L9
 173 00de 0125     		mov	r5, #1
 174 00e0 03E0     		b	.L11
 175              	.L9:
 165:bt.c          ****       {
 166:bt.c          ****         uart1SendChar(rxChar);
 176              		.loc 1 166 0
 177 00e2 2078     		ldrb	r0, [r4]
 178 00e4 FFF7FEFF 		bl	uart1SendChar
 179 00e8 0025     		mov	r5, #0
 180              	.L11:
 167:bt.c          ****         nothing = FALSE;
 168:bt.c          ****       }
 169:bt.c          **** 
 170:bt.c          ****       //check if any character has been received from BT
 171:bt.c          ****       if (uart1GetChar(&rxChar) == TRUE)
 181              		.loc 1 171 0
 182 00ea 6C46     		mov	r4, sp
 183 00ec 0234     		add	r4, r4, #2
 184 00ee 201C     		mov	r0, r4
 185 00f0 FFF7FEFF 		bl	uart1GetChar
 186 00f4 0128     		cmp	r0, #1
 187 00f6 04D1     		bne	.L12
 172:bt.c          ****       {
 173:bt.c          ****         printf("%c", rxChar);
 188              		.loc 1 173 0
 189 00f8 0F48     		ldr	r0, .L23+28
 190 00fa 2178     		ldrb	r1, [r4]
 191 00fc FFF7FEFF 		bl	simplePrintf
 192 0100 04E0     		b	.L22
 193              	.L12:
 174:bt.c          ****         nothing = FALSE;
 175:bt.c          ****       }
 176:bt.c          ****         
 177:bt.c          ****       if (nothing == TRUE)
 194              		.loc 1 177 0
 195 0102 012D     		cmp	r5, #1
 196 0104 02D1     		bne	.L22
 178:bt.c          ****         osSleep(1);
 197              		.loc 1 178 0
 198 0106 0120     		mov	r0, #1
 199 0108 FFF7FEFF 		bl	osSleep
 200              	.L22:
 201              	.LBE2:
 202              		.loc 1 155 0
 203 010c 0B4A     		ldr	r2, .L23+32
 204 010e 1378     		ldrb	r3, [r2]
 205 0110 002B     		cmp	r3, #0
 206 0112 DDD0     		beq	.L8
 179:bt.c          ****     }
 180:bt.c          ****     stopRecvProc = FALSE;
ARM GAS  /cygdrive/c/DOCUME~1/witaj/USTAWI~1/Temp/cciROU7y.s 			page 8


 207              		.loc 1 180 0
 208 0114 0023     		mov	r3, #0
 209 0116 1370     		strb	r3, [r2]
 210 0118 D3E7     		b	.L6
 211              	.L24:
 212 011a 0000     		.align	2
 213              	.L23:
 214 011c 00000000 		.word	.LC4
 215 0120 04000000 		.word	.LC6
 216 0124 0C000000 		.word	.LC8
 217 0128 18000000 		.word	.LC10
 218 012c 24000000 		.word	.LC12
 219 0130 30000000 		.word	.LC14
 220 0134 24030000 		.word	recvSem
 221 0138 3C000000 		.word	.LC17
 222 013c 00000000 		.word	stopRecvProc
 223              	.LFE3:
 224              		.size	procBt, .-procBt
 225              		.bss
 226              	stopRecvProc:
 227 0000 00       		.space	1
 228              	procBtStack:
 229 0001 00000000 		.space	800
 229      00000000 
 229      00000000 
 229      00000000 
 229      00000000 
 230              	pidBt:
 231 0321 00       		.space	1
 232 0322 0000     		.align	2
 233              	recvSem:
 234 0324 00000000 		.space	28
 234      00000000 
 234      00000000 
 234      00000000 
 234      00000000 
 235              		.section	.debug_frame,"",%progbits
 236              	.Lframe0:
 237 0000 0C000000 		.4byte	.LECIE0-.LSCIE0
 238              	.LSCIE0:
 239 0004 FFFFFFFF 		.4byte	0xffffffff
 240 0008 01       		.byte	0x1
 241 0009 00       		.ascii	"\000"
 242 000a 01       		.uleb128 0x1
 243 000b 7C       		.sleb128 -4
 244 000c 0E       		.byte	0xe
 245 000d 0C       		.byte	0xc
 246 000e 0D       		.uleb128 0xd
 247 000f 00       		.uleb128 0x0
 248              		.align	2
 249              	.LECIE0:
 250              	.LSFDE0:
 251 0010 18000000 		.4byte	.LEFDE0-.LASFDE0
 252              	.LASFDE0:
 253 0014 00000000 		.4byte	.Lframe0
 254 0018 00000000 		.4byte	.LFB2
 255 001c 4C000000 		.4byte	.LFE2-.LFB2
ARM GAS  /cygdrive/c/DOCUME~1/witaj/USTAWI~1/Temp/cciROU7y.s 			page 9


 256 0020 42       		.byte	0x4
 257              		.4byte	.LCFI0-.LFB2
 258 0021 0E       		.byte	0xe
 259 0022 0C       		.uleb128 0xc
 260 0023 84       		.byte	0x84
 261 0024 03       		.uleb128 0x3
 262 0025 85       		.byte	0x85
 263 0026 02       		.uleb128 0x2
 264 0027 8E       		.byte	0x8e
 265 0028 01       		.uleb128 0x1
 266 0029 42       		.byte	0x4
 267              		.4byte	.LCFI1-.LCFI0
 268 002a 0E       		.byte	0xe
 269 002b 1C       		.uleb128 0x1c
 270              		.align	2
 271              	.LEFDE0:
 272              	.LSFDE2:
 273 002c 18000000 		.4byte	.LEFDE2-.LASFDE2
 274              	.LASFDE2:
 275 0030 00000000 		.4byte	.Lframe0
 276 0034 4C000000 		.4byte	.LFB3
 277 0038 F4000000 		.4byte	.LFE3-.LFB3
 278 003c 42       		.byte	0x4
 279              		.4byte	.LCFI2-.LFB3
 280 003d 0E       		.byte	0xe
 281 003e 0C       		.uleb128 0xc
 282 003f 84       		.byte	0x84
 283 0040 03       		.uleb128 0x3
 284 0041 85       		.byte	0x85
 285 0042 02       		.uleb128 0x2
 286 0043 8E       		.byte	0x8e
 287 0044 01       		.uleb128 0x1
 288 0045 42       		.byte	0x4
 289              		.4byte	.LCFI3-.LCFI2
 290 0046 0E       		.byte	0xe
 291 0047 10       		.uleb128 0x10
 292              		.align	2
 293              	.LEFDE2:
 294              		.file 2 "./startup/../pre_emptive_os/api/../api/general.h"
 295              		.file 3 "./startup/../pre_emptive_os/api/osapi.h"
 296              		.text
 297              	.Letext0:
 298              		.section	.debug_loc,"",%progbits
 299              	.Ldebug_loc0:
 300              	.LLST0:
 301 0000 00000000 		.4byte	.LFB2-.Ltext0
 302 0004 02000000 		.4byte	.LCFI0-.Ltext0
 303 0008 0100     		.2byte	0x1
 304 000a 5D       		.byte	0x5d
 305 000b 02000000 		.4byte	.LCFI0-.Ltext0
 306 000f 04000000 		.4byte	.LCFI1-.Ltext0
 307 0013 0200     		.2byte	0x2
 308 0015 7D       		.byte	0x7d
 309 0016 0C       		.sleb128 12
 310 0017 04000000 		.4byte	.LCFI1-.Ltext0
 311 001b 4C000000 		.4byte	.LFE2-.Ltext0
 312 001f 0200     		.2byte	0x2
ARM GAS  /cygdrive/c/DOCUME~1/witaj/USTAWI~1/Temp/cciROU7y.s 			page 10


 313 0021 7D       		.byte	0x7d
 314 0022 1C       		.sleb128 28
 315 0023 00000000 		.4byte	0x0
 316 0027 00000000 		.4byte	0x0
 317              	.LLST1:
 318 002b 4C000000 		.4byte	.LFB3-.Ltext0
 319 002f 4E000000 		.4byte	.LCFI2-.Ltext0
 320 0033 0100     		.2byte	0x1
 321 0035 5D       		.byte	0x5d
 322 0036 4E000000 		.4byte	.LCFI2-.Ltext0
 323 003a 50000000 		.4byte	.LCFI3-.Ltext0
 324 003e 0200     		.2byte	0x2
 325 0040 7D       		.byte	0x7d
 326 0041 0C       		.sleb128 12
 327 0042 50000000 		.4byte	.LCFI3-.Ltext0
 328 0046 40010000 		.4byte	.LFE3-.Ltext0
 329 004a 0200     		.2byte	0x2
 330 004c 7D       		.byte	0x7d
 331 004d 10       		.sleb128 16
 332 004e 00000000 		.4byte	0x0
 333 0052 00000000 		.4byte	0x0
 334              	.LLST2:
 335 0056 4E000000 		.4byte	.LVL0-.Ltext0
 336 005a 52000000 		.4byte	.LVL1-.Ltext0
 337 005e 0100     		.2byte	0x1
 338 0060 50       		.byte	0x50
 339 0061 00000000 		.4byte	0x0
 340 0065 00000000 		.4byte	0x0
 341              		.section	.debug_info
 342 0000 A3030000 		.4byte	0x3a3
 343 0004 0200     		.2byte	0x2
 344 0006 00000000 		.4byte	.Ldebug_abbrev0
 345 000a 04       		.byte	0x4
 346 000b 01       		.uleb128 0x1
 347 000c 00000000 		.4byte	.Ldebug_line0
 348 0010 40010000 		.4byte	.Letext0
 349 0014 00000000 		.4byte	.Ltext0
 350 0018 D1010000 		.4byte	.LASF51
 351 001c 01       		.byte	0x1
 352 001d CB000000 		.4byte	.LASF52
 353 0021 2F010000 		.4byte	.LASF53
 354 0025 02       		.uleb128 0x2
 355 0026 74553800 		.ascii	"tU8\000"
 356 002a 02       		.byte	0x2
 357 002b 47       		.byte	0x47
 358 002c 30000000 		.4byte	0x30
 359 0030 03       		.uleb128 0x3
 360 0031 C3010000 		.4byte	.LASF1
 361 0035 01       		.byte	0x1
 362 0036 08       		.byte	0x8
 363 0037 04       		.uleb128 0x4
 364 0038 B0000000 		.4byte	.LASF0
 365 003c 02       		.byte	0x2
 366 003d 48       		.byte	0x48
 367 003e 42000000 		.4byte	0x42
 368 0042 03       		.uleb128 0x3
 369 0043 16010000 		.4byte	.LASF2
ARM GAS  /cygdrive/c/DOCUME~1/witaj/USTAWI~1/Temp/cciROU7y.s 			page 11


 370 0047 02       		.byte	0x2
 371 0048 07       		.byte	0x7
 372 0049 04       		.uleb128 0x4
 373 004a 78010000 		.4byte	.LASF3
 374 004e 02       		.byte	0x2
 375 004f 49       		.byte	0x49
 376 0050 54000000 		.4byte	0x54
 377 0054 03       		.uleb128 0x3
 378 0055 F0000000 		.4byte	.LASF4
 379 0059 04       		.byte	0x4
 380 005a 07       		.byte	0x7
 381 005b 03       		.uleb128 0x3
 382 005c 3A000000 		.4byte	.LASF5
 383 0060 01       		.byte	0x1
 384 0061 06       		.byte	0x6
 385 0062 03       		.uleb128 0x3
 386 0063 DD010000 		.4byte	.LASF6
 387 0067 02       		.byte	0x2
 388 0068 05       		.byte	0x5
 389 0069 05       		.uleb128 0x5
 390 006a 696E7400 		.ascii	"int\000"
 391 006e 04       		.byte	0x4
 392 006f 05       		.byte	0x5
 393 0070 04       		.uleb128 0x4
 394 0071 96000000 		.4byte	.LASF7
 395 0075 02       		.byte	0x2
 396 0076 4D       		.byte	0x4d
 397 0077 30000000 		.4byte	0x30
 398 007b 06       		.uleb128 0x6
 399 007c 30010000 		.4byte	0x130
 400 0080 17000000 		.4byte	.LASF20
 401 0084 28       		.byte	0x28
 402 0085 03       		.byte	0x3
 403 0086 58       		.byte	0x58
 404 0087 07       		.uleb128 0x7
 405 0088 B4010000 		.4byte	.LASF8
 406 008c 03       		.byte	0x3
 407 008d 59       		.byte	0x59
 408 008e 30010000 		.4byte	0x130
 409 0092 02       		.byte	0x2
 410 0093 23       		.byte	0x23
 411 0094 00       		.uleb128 0x0
 412 0095 07       		.uleb128 0x7
 413 0096 26000000 		.4byte	.LASF9
 414 009a 03       		.byte	0x3
 415 009b 5A       		.byte	0x5a
 416 009c 36010000 		.4byte	0x136
 417 00a0 02       		.byte	0x2
 418 00a1 23       		.byte	0x23
 419 00a2 04       		.uleb128 0x4
 420 00a3 07       		.uleb128 0x7
 421 00a4 61020000 		.4byte	.LASF10
 422 00a8 03       		.byte	0x3
 423 00a9 5B       		.byte	0x5b
 424 00aa 36010000 		.4byte	0x136
 425 00ae 02       		.byte	0x2
 426 00af 23       		.byte	0x23
ARM GAS  /cygdrive/c/DOCUME~1/witaj/USTAWI~1/Temp/cciROU7y.s 			page 12


 427 00b0 08       		.uleb128 0x8
 428 00b1 07       		.uleb128 0x7
 429 00b2 7D010000 		.4byte	.LASF11
 430 00b6 03       		.byte	0x3
 431 00b7 5C       		.byte	0x5c
 432 00b8 36010000 		.4byte	0x136
 433 00bc 02       		.byte	0x2
 434 00bd 23       		.byte	0x23
 435 00be 0C       		.uleb128 0xc
 436 00bf 07       		.uleb128 0x7
 437 00c0 2B020000 		.4byte	.LASF12
 438 00c4 03       		.byte	0x3
 439 00c5 5D       		.byte	0x5d
 440 00c6 36010000 		.4byte	0x136
 441 00ca 02       		.byte	0x2
 442 00cb 23       		.byte	0x23
 443 00cc 10       		.uleb128 0x10
 444 00cd 07       		.uleb128 0x7
 445 00ce 00000000 		.4byte	.LASF13
 446 00d2 03       		.byte	0x3
 447 00d3 5E       		.byte	0x5e
 448 00d4 36010000 		.4byte	0x136
 449 00d8 02       		.byte	0x2
 450 00d9 23       		.byte	0x23
 451 00da 14       		.uleb128 0x14
 452 00db 08       		.uleb128 0x8
 453 00dc 70696400 		.ascii	"pid\000"
 454 00e0 03       		.byte	0x3
 455 00e1 5F       		.byte	0x5f
 456 00e2 25000000 		.4byte	0x25
 457 00e6 02       		.byte	0x2
 458 00e7 23       		.byte	0x23
 459 00e8 18       		.uleb128 0x18
 460 00e9 07       		.uleb128 0x7
 461 00ea 21000000 		.4byte	.LASF14
 462 00ee 03       		.byte	0x3
 463 00ef 60       		.byte	0x60
 464 00f0 25000000 		.4byte	0x25
 465 00f4 02       		.byte	0x2
 466 00f5 23       		.byte	0x23
 467 00f6 19       		.uleb128 0x19
 468 00f7 07       		.uleb128 0x7
 469 00f8 E7010000 		.4byte	.LASF15
 470 00fc 03       		.byte	0x3
 471 00fd 61       		.byte	0x61
 472 00fe 25000000 		.4byte	0x25
 473 0102 02       		.byte	0x2
 474 0103 23       		.byte	0x23
 475 0104 1A       		.uleb128 0x1a
 476 0105 07       		.uleb128 0x7
 477 0106 29010000 		.4byte	.LASF16
 478 010a 03       		.byte	0x3
 479 010b 62       		.byte	0x62
 480 010c 49000000 		.4byte	0x49
 481 0110 02       		.byte	0x2
 482 0111 23       		.byte	0x23
 483 0112 1C       		.uleb128 0x1c
ARM GAS  /cygdrive/c/DOCUME~1/witaj/USTAWI~1/Temp/cciROU7y.s 			page 13


 484 0113 07       		.uleb128 0x7
 485 0114 AC010000 		.4byte	.LASF17
 486 0118 03       		.byte	0x3
 487 0119 65       		.byte	0x65
 488 011a 30010000 		.4byte	0x130
 489 011e 02       		.byte	0x2
 490 011f 23       		.byte	0x23
 491 0120 20       		.uleb128 0x20
 492 0121 07       		.uleb128 0x7
 493 0122 F1010000 		.4byte	.LASF18
 494 0126 03       		.byte	0x3
 495 0127 66       		.byte	0x66
 496 0128 37000000 		.4byte	0x37
 497 012c 02       		.byte	0x2
 498 012d 23       		.byte	0x23
 499 012e 24       		.uleb128 0x24
 500 012f 00       		.byte	0x0
 501 0130 09       		.uleb128 0x9
 502 0131 04       		.byte	0x4
 503 0132 25000000 		.4byte	0x25
 504 0136 09       		.uleb128 0x9
 505 0137 04       		.byte	0x4
 506 0138 7B000000 		.4byte	0x7b
 507 013c 04       		.uleb128 0x4
 508 013d 6E000000 		.4byte	.LASF19
 509 0141 03       		.byte	0x3
 510 0142 68       		.byte	0x68
 511 0143 7B000000 		.4byte	0x7b
 512 0147 06       		.uleb128 0x6
 513 0148 70010000 		.4byte	0x170
 514 014c 75000000 		.4byte	.LASF21
 515 0150 18       		.byte	0x18
 516 0151 03       		.byte	0x3
 517 0152 70       		.byte	0x70
 518 0153 07       		.uleb128 0x7
 519 0154 02020000 		.4byte	.LASF22
 520 0158 03       		.byte	0x3
 521 0159 71       		.byte	0x71
 522 015a 70010000 		.4byte	0x170
 523 015e 02       		.byte	0x2
 524 015f 23       		.byte	0x23
 525 0160 00       		.uleb128 0x0
 526 0161 07       		.uleb128 0x7
 527 0162 1C020000 		.4byte	.LASF23
 528 0166 03       		.byte	0x3
 529 0167 72       		.byte	0x72
 530 0168 87010000 		.4byte	0x187
 531 016c 02       		.byte	0x2
 532 016d 23       		.byte	0x23
 533 016e 14       		.uleb128 0x14
 534 016f 00       		.byte	0x0
 535 0170 0A       		.uleb128 0xa
 536 0171 80010000 		.4byte	0x180
 537 0175 87010000 		.4byte	0x187
 538 0179 0B       		.uleb128 0xb
 539 017a 80010000 		.4byte	0x180
 540 017e 04       		.byte	0x4
ARM GAS  /cygdrive/c/DOCUME~1/witaj/USTAWI~1/Temp/cciROU7y.s 			page 14


 541 017f 00       		.byte	0x0
 542 0180 03       		.uleb128 0x3
 543 0181 04010000 		.4byte	.LASF24
 544 0185 04       		.byte	0x4
 545 0186 07       		.byte	0x7
 546 0187 09       		.uleb128 0x9
 547 0188 04       		.byte	0x4
 548 0189 3C010000 		.4byte	0x13c
 549 018d 04       		.uleb128 0x4
 550 018e 4C020000 		.4byte	.LASF25
 551 0192 03       		.byte	0x3
 552 0193 73       		.byte	0x73
 553 0194 47010000 		.4byte	0x147
 554 0198 06       		.uleb128 0x6
 555 0199 B3010000 		.4byte	0x1b3
 556 019d 91010000 		.4byte	.LASF26
 557 01a1 18       		.byte	0x18
 558 01a2 03       		.byte	0x3
 559 01a3 76       		.byte	0x76
 560 01a4 07       		.uleb128 0x7
 561 01a5 EA000000 		.4byte	.LASF27
 562 01a9 03       		.byte	0x3
 563 01aa 77       		.byte	0x77
 564 01ab 8D010000 		.4byte	0x18d
 565 01af 02       		.byte	0x2
 566 01b0 23       		.byte	0x23
 567 01b1 00       		.uleb128 0x0
 568 01b2 00       		.byte	0x0
 569 01b3 04       		.uleb128 0x4
 570 01b4 22020000 		.4byte	.LASF28
 571 01b8 03       		.byte	0x3
 572 01b9 78       		.byte	0x78
 573 01ba 98010000 		.4byte	0x198
 574 01be 06       		.uleb128 0x6
 575 01bf E6010000 		.4byte	0x1e6
 576 01c3 57020000 		.4byte	.LASF29
 577 01c7 1C       		.byte	0x1c
 578 01c8 03       		.byte	0x3
 579 01c9 7B       		.byte	0x7b
 580 01ca 08       		.uleb128 0x8
 581 01cb 657600   		.ascii	"ev\000"
 582 01ce 03       		.byte	0x3
 583 01cf 7C       		.byte	0x7c
 584 01d0 B3010000 		.4byte	0x1b3
 585 01d4 02       		.byte	0x2
 586 01d5 23       		.byte	0x23
 587 01d6 00       		.uleb128 0x0
 588 01d7 08       		.uleb128 0x8
 589 01d8 636E7400 		.ascii	"cnt\000"
 590 01dc 03       		.byte	0x3
 591 01dd 7D       		.byte	0x7d
 592 01de 37000000 		.4byte	0x37
 593 01e2 02       		.byte	0x2
 594 01e3 23       		.byte	0x23
 595 01e4 18       		.uleb128 0x18
 596 01e5 00       		.byte	0x0
 597 01e6 04       		.uleb128 0x4
ARM GAS  /cygdrive/c/DOCUME~1/witaj/USTAWI~1/Temp/cciROU7y.s 			page 15


 598 01e7 0F000000 		.4byte	.LASF30
 599 01eb 03       		.byte	0x3
 600 01ec 7F       		.byte	0x7f
 601 01ed BE010000 		.4byte	0x1be
 602 01f1 0C       		.uleb128 0xc
 603 01f2 04       		.byte	0x4
 604 01f3 03       		.uleb128 0x3
 605 01f4 04010000 		.4byte	.LASF24
 606 01f8 04       		.byte	0x4
 607 01f9 07       		.byte	0x7
 608 01fa 03       		.uleb128 0x3
 609 01fb B5000000 		.4byte	.LASF31
 610 01ff 04       		.byte	0x4
 611 0200 05       		.byte	0x5
 612 0201 03       		.uleb128 0x3
 613 0202 88000000 		.4byte	.LASF32
 614 0206 08       		.byte	0x8
 615 0207 05       		.byte	0x5
 616 0208 03       		.uleb128 0x3
 617 0209 EC010000 		.4byte	.LASF33
 618 020d 01       		.byte	0x1
 619 020e 08       		.byte	0x8
 620 020f 03       		.uleb128 0x3
 621 0210 50000000 		.4byte	.LASF34
 622 0214 08       		.byte	0x8
 623 0215 07       		.byte	0x7
 624 0216 0D       		.uleb128 0xd
 625 0217 49020000 		.4byte	0x249
 626 021b 20       		.byte	0x20
 627 021c 01       		.byte	0x1
 628 021d 29       		.byte	0x29
 629 021e 07       		.uleb128 0x7
 630 021f FD000000 		.4byte	.LASF35
 631 0223 01       		.byte	0x1
 632 0224 2A       		.byte	0x2a
 633 0225 25000000 		.4byte	0x25
 634 0229 02       		.byte	0x2
 635 022a 23       		.byte	0x23
 636 022b 00       		.uleb128 0x0
 637 022c 07       		.uleb128 0x7
 638 022d 9C010000 		.4byte	.LASF36
 639 0231 01       		.byte	0x1
 640 0232 2B       		.byte	0x2b
 641 0233 49020000 		.4byte	0x249
 642 0237 02       		.byte	0x2
 643 0238 23       		.byte	0x23
 644 0239 01       		.uleb128 0x1
 645 023a 07       		.uleb128 0x7
 646 023b 75020000 		.4byte	.LASF37
 647 023f 01       		.byte	0x1
 648 0240 2C       		.byte	0x2c
 649 0241 59020000 		.4byte	0x259
 650 0245 02       		.byte	0x2
 651 0246 23       		.byte	0x23
 652 0247 0E       		.uleb128 0xe
 653 0248 00       		.byte	0x0
 654 0249 0A       		.uleb128 0xa
ARM GAS  /cygdrive/c/DOCUME~1/witaj/USTAWI~1/Temp/cciROU7y.s 			page 16


 655 024a 59020000 		.4byte	0x259
 656 024e 25000000 		.4byte	0x25
 657 0252 0B       		.uleb128 0xb
 658 0253 80010000 		.4byte	0x180
 659 0257 0C       		.byte	0xc
 660 0258 00       		.byte	0x0
 661 0259 0A       		.uleb128 0xa
 662 025a 69020000 		.4byte	0x269
 663 025e 25000000 		.4byte	0x25
 664 0262 0B       		.uleb128 0xb
 665 0263 80010000 		.4byte	0x180
 666 0267 10       		.byte	0x10
 667 0268 00       		.byte	0x0
 668 0269 04       		.uleb128 0x4
 669 026a 46000000 		.4byte	.LASF38
 670 026e 01       		.byte	0x1
 671 026f 2D       		.byte	0x2d
 672 0270 16020000 		.4byte	0x216
 673 0274 0E       		.uleb128 0xe
 674 0275 9C020000 		.4byte	0x29c
 675 0279 01       		.byte	0x1
 676 027a 9C000000 		.4byte	.LASF54
 677 027e 01       		.byte	0x1
 678 027f 5A       		.byte	0x5a
 679 0280 01       		.byte	0x1
 680 0281 00000000 		.4byte	.LFB2
 681 0285 4C000000 		.4byte	.LFE2
 682 0289 00000000 		.4byte	.LLST0
 683 028d 0F       		.uleb128 0xf
 684 028e A6010000 		.4byte	.LASF39
 685 0292 01       		.byte	0x1
 686 0293 5B       		.byte	0x5b
 687 0294 25000000 		.4byte	0x25
 688 0298 02       		.byte	0x2
 689 0299 91       		.byte	0x91
 690 029a 73       		.sleb128 -13
 691 029b 00       		.byte	0x0
 692 029c 10       		.uleb128 0x10
 693 029d F7020000 		.4byte	0x2f7
 694 02a1 FB010000 		.4byte	.LASF55
 695 02a5 01       		.byte	0x1
 696 02a6 6F       		.byte	0x6f
 697 02a7 01       		.byte	0x1
 698 02a8 4C000000 		.4byte	.LFB3
 699 02ac 40010000 		.4byte	.LFE3
 700 02b0 2B000000 		.4byte	.LLST1
 701 02b4 11       		.uleb128 0x11
 702 02b5 61726700 		.ascii	"arg\000"
 703 02b9 01       		.byte	0x1
 704 02ba 6E       		.byte	0x6e
 705 02bb F1010000 		.4byte	0x1f1
 706 02bf 56000000 		.4byte	.LLST2
 707 02c3 0F       		.uleb128 0xf
 708 02c4 A6010000 		.4byte	.LASF39
 709 02c8 01       		.byte	0x1
 710 02c9 70       		.byte	0x70
 711 02ca 25000000 		.4byte	0x25
ARM GAS  /cygdrive/c/DOCUME~1/witaj/USTAWI~1/Temp/cciROU7y.s 			page 17


 712 02ce 02       		.byte	0x2
 713 02cf 91       		.byte	0x91
 714 02d0 73       		.sleb128 -13
 715 02d1 12       		.uleb128 0x12
 716 02d2 D0000000 		.4byte	.LBB2
 717 02d6 0C010000 		.4byte	.LBE2
 718 02da 0F       		.uleb128 0xf
 719 02db 67000000 		.4byte	.LASF40
 720 02df 01       		.byte	0x1
 721 02e0 9D       		.byte	0x9d
 722 02e1 25000000 		.4byte	0x25
 723 02e5 02       		.byte	0x2
 724 02e6 74       		.byte	0x74
 725 02e7 00       		.sleb128 0
 726 02e8 0F       		.uleb128 0xf
 727 02e9 14020000 		.4byte	.LASF41
 728 02ed 01       		.byte	0x1
 729 02ee 9E       		.byte	0x9e
 730 02ef 25000000 		.4byte	0x25
 731 02f3 01       		.byte	0x1
 732 02f4 55       		.byte	0x55
 733 02f5 00       		.byte	0x0
 734 02f6 00       		.byte	0x0
 735 02f7 0A       		.uleb128 0xa
 736 02f8 08030000 		.4byte	0x308
 737 02fc 25000000 		.4byte	0x25
 738 0300 13       		.uleb128 0x13
 739 0301 80010000 		.4byte	0x180
 740 0305 1F03     		.2byte	0x31f
 741 0307 00       		.byte	0x0
 742 0308 0F       		.uleb128 0xf
 743 0309 DE000000 		.4byte	.LASF42
 744 030d 01       		.byte	0x1
 745 030e 33       		.byte	0x33
 746 030f F7020000 		.4byte	0x2f7
 747 0313 05       		.byte	0x5
 748 0314 03       		.byte	0x3
 749 0315 01000000 		.4byte	procBtStack
 750 0319 0F       		.uleb128 0xf
 751 031a 82000000 		.4byte	.LASF43
 752 031e 01       		.byte	0x1
 753 031f 34       		.byte	0x34
 754 0320 25000000 		.4byte	0x25
 755 0324 05       		.byte	0x5
 756 0325 03       		.byte	0x3
 757 0326 21030000 		.4byte	pidBt
 758 032a 0F       		.uleb128 0xf
 759 032b 7C020000 		.4byte	.LASF44
 760 032f 01       		.byte	0x1
 761 0330 36       		.byte	0x36
 762 0331 3B030000 		.4byte	0x33b
 763 0335 05       		.byte	0x5
 764 0336 03       		.byte	0x3
 765 0337 00000000 		.4byte	stopRecvProc
 766 033b 14       		.uleb128 0x14
 767 033c 70000000 		.4byte	0x70
 768 0340 0F       		.uleb128 0xf
ARM GAS  /cygdrive/c/DOCUME~1/witaj/USTAWI~1/Temp/cciROU7y.s 			page 18


 769 0341 0C020000 		.4byte	.LASF45
 770 0345 01       		.byte	0x1
 771 0346 37       		.byte	0x37
 772 0347 E6010000 		.4byte	0x1e6
 773 034b 05       		.byte	0x5
 774 034c 03       		.byte	0x3
 775 034d 24030000 		.4byte	recvSem
 776 0351 15       		.uleb128 0x15
 777 0352 A7000000 		.4byte	.LASF46
 778 0356 01       		.byte	0x1
 779 0357 39       		.byte	0x39
 780 0358 25000000 		.4byte	0x25
 781 035c 00       		.byte	0x0
 782 035d 15       		.uleb128 0x15
 783 035e 3F020000 		.4byte	.LASF47
 784 0362 01       		.byte	0x1
 785 0363 3B       		.byte	0x3b
 786 0364 70000000 		.4byte	0x70
 787 0368 00       		.byte	0x0
 788 0369 15       		.uleb128 0x15
 789 036a D0000000 		.4byte	.LASF48
 790 036e 01       		.byte	0x1
 791 036f 3C       		.byte	0x3c
 792 0370 70000000 		.4byte	0x70
 793 0374 00       		.byte	0x0
 794 0375 16       		.uleb128 0x16
 795 0376 B9010000 		.4byte	.LASF49
 796 037a 01       		.byte	0x1
 797 037b 3E       		.byte	0x3e
 798 037c 59020000 		.4byte	0x259
 799 0380 16       		.uleb128 0x16
 800 0381 9C010000 		.4byte	.LASF36
 801 0385 01       		.byte	0x1
 802 0386 3F       		.byte	0x3f
 803 0387 49020000 		.4byte	0x249
 804 038b 0A       		.uleb128 0xa
 805 038c 9B030000 		.4byte	0x39b
 806 0390 69020000 		.4byte	0x269
 807 0394 0B       		.uleb128 0xb
 808 0395 80010000 		.4byte	0x180
 809 0399 04       		.byte	0x4
 810 039a 00       		.byte	0x0
 811 039b 16       		.uleb128 0x16
 812 039c BE000000 		.4byte	.LASF50
 813 03a0 01       		.byte	0x1
 814 03a1 41       		.byte	0x41
 815 03a2 8B030000 		.4byte	0x38b
 816 03a6 00       		.byte	0x0
 817              		.section	.debug_abbrev
 818 0000 01       		.uleb128 0x1
 819 0001 11       		.uleb128 0x11
 820 0002 01       		.byte	0x1
 821 0003 10       		.uleb128 0x10
 822 0004 06       		.uleb128 0x6
 823 0005 12       		.uleb128 0x12
 824 0006 01       		.uleb128 0x1
 825 0007 11       		.uleb128 0x11
ARM GAS  /cygdrive/c/DOCUME~1/witaj/USTAWI~1/Temp/cciROU7y.s 			page 19


 826 0008 01       		.uleb128 0x1
 827 0009 25       		.uleb128 0x25
 828 000a 0E       		.uleb128 0xe
 829 000b 13       		.uleb128 0x13
 830 000c 0B       		.uleb128 0xb
 831 000d 03       		.uleb128 0x3
 832 000e 0E       		.uleb128 0xe
 833 000f 1B       		.uleb128 0x1b
 834 0010 0E       		.uleb128 0xe
 835 0011 00       		.byte	0x0
 836 0012 00       		.byte	0x0
 837 0013 02       		.uleb128 0x2
 838 0014 16       		.uleb128 0x16
 839 0015 00       		.byte	0x0
 840 0016 03       		.uleb128 0x3
 841 0017 08       		.uleb128 0x8
 842 0018 3A       		.uleb128 0x3a
 843 0019 0B       		.uleb128 0xb
 844 001a 3B       		.uleb128 0x3b
 845 001b 0B       		.uleb128 0xb
 846 001c 49       		.uleb128 0x49
 847 001d 13       		.uleb128 0x13
 848 001e 00       		.byte	0x0
 849 001f 00       		.byte	0x0
 850 0020 03       		.uleb128 0x3
 851 0021 24       		.uleb128 0x24
 852 0022 00       		.byte	0x0
 853 0023 03       		.uleb128 0x3
 854 0024 0E       		.uleb128 0xe
 855 0025 0B       		.uleb128 0xb
 856 0026 0B       		.uleb128 0xb
 857 0027 3E       		.uleb128 0x3e
 858 0028 0B       		.uleb128 0xb
 859 0029 00       		.byte	0x0
 860 002a 00       		.byte	0x0
 861 002b 04       		.uleb128 0x4
 862 002c 16       		.uleb128 0x16
 863 002d 00       		.byte	0x0
 864 002e 03       		.uleb128 0x3
 865 002f 0E       		.uleb128 0xe
 866 0030 3A       		.uleb128 0x3a
 867 0031 0B       		.uleb128 0xb
 868 0032 3B       		.uleb128 0x3b
 869 0033 0B       		.uleb128 0xb
 870 0034 49       		.uleb128 0x49
 871 0035 13       		.uleb128 0x13
 872 0036 00       		.byte	0x0
 873 0037 00       		.byte	0x0
 874 0038 05       		.uleb128 0x5
 875 0039 24       		.uleb128 0x24
 876 003a 00       		.byte	0x0
 877 003b 03       		.uleb128 0x3
 878 003c 08       		.uleb128 0x8
 879 003d 0B       		.uleb128 0xb
 880 003e 0B       		.uleb128 0xb
 881 003f 3E       		.uleb128 0x3e
 882 0040 0B       		.uleb128 0xb
ARM GAS  /cygdrive/c/DOCUME~1/witaj/USTAWI~1/Temp/cciROU7y.s 			page 20


 883 0041 00       		.byte	0x0
 884 0042 00       		.byte	0x0
 885 0043 06       		.uleb128 0x6
 886 0044 13       		.uleb128 0x13
 887 0045 01       		.byte	0x1
 888 0046 01       		.uleb128 0x1
 889 0047 13       		.uleb128 0x13
 890 0048 03       		.uleb128 0x3
 891 0049 0E       		.uleb128 0xe
 892 004a 0B       		.uleb128 0xb
 893 004b 0B       		.uleb128 0xb
 894 004c 3A       		.uleb128 0x3a
 895 004d 0B       		.uleb128 0xb
 896 004e 3B       		.uleb128 0x3b
 897 004f 0B       		.uleb128 0xb
 898 0050 00       		.byte	0x0
 899 0051 00       		.byte	0x0
 900 0052 07       		.uleb128 0x7
 901 0053 0D       		.uleb128 0xd
 902 0054 00       		.byte	0x0
 903 0055 03       		.uleb128 0x3
 904 0056 0E       		.uleb128 0xe
 905 0057 3A       		.uleb128 0x3a
 906 0058 0B       		.uleb128 0xb
 907 0059 3B       		.uleb128 0x3b
 908 005a 0B       		.uleb128 0xb
 909 005b 49       		.uleb128 0x49
 910 005c 13       		.uleb128 0x13
 911 005d 38       		.uleb128 0x38
 912 005e 0A       		.uleb128 0xa
 913 005f 00       		.byte	0x0
 914 0060 00       		.byte	0x0
 915 0061 08       		.uleb128 0x8
 916 0062 0D       		.uleb128 0xd
 917 0063 00       		.byte	0x0
 918 0064 03       		.uleb128 0x3
 919 0065 08       		.uleb128 0x8
 920 0066 3A       		.uleb128 0x3a
 921 0067 0B       		.uleb128 0xb
 922 0068 3B       		.uleb128 0x3b
 923 0069 0B       		.uleb128 0xb
 924 006a 49       		.uleb128 0x49
 925 006b 13       		.uleb128 0x13
 926 006c 38       		.uleb128 0x38
 927 006d 0A       		.uleb128 0xa
 928 006e 00       		.byte	0x0
 929 006f 00       		.byte	0x0
 930 0070 09       		.uleb128 0x9
 931 0071 0F       		.uleb128 0xf
 932 0072 00       		.byte	0x0
 933 0073 0B       		.uleb128 0xb
 934 0074 0B       		.uleb128 0xb
 935 0075 49       		.uleb128 0x49
 936 0076 13       		.uleb128 0x13
 937 0077 00       		.byte	0x0
 938 0078 00       		.byte	0x0
 939 0079 0A       		.uleb128 0xa
ARM GAS  /cygdrive/c/DOCUME~1/witaj/USTAWI~1/Temp/cciROU7y.s 			page 21


 940 007a 01       		.uleb128 0x1
 941 007b 01       		.byte	0x1
 942 007c 01       		.uleb128 0x1
 943 007d 13       		.uleb128 0x13
 944 007e 49       		.uleb128 0x49
 945 007f 13       		.uleb128 0x13
 946 0080 00       		.byte	0x0
 947 0081 00       		.byte	0x0
 948 0082 0B       		.uleb128 0xb
 949 0083 21       		.uleb128 0x21
 950 0084 00       		.byte	0x0
 951 0085 49       		.uleb128 0x49
 952 0086 13       		.uleb128 0x13
 953 0087 2F       		.uleb128 0x2f
 954 0088 0B       		.uleb128 0xb
 955 0089 00       		.byte	0x0
 956 008a 00       		.byte	0x0
 957 008b 0C       		.uleb128 0xc
 958 008c 0F       		.uleb128 0xf
 959 008d 00       		.byte	0x0
 960 008e 0B       		.uleb128 0xb
 961 008f 0B       		.uleb128 0xb
 962 0090 00       		.byte	0x0
 963 0091 00       		.byte	0x0
 964 0092 0D       		.uleb128 0xd
 965 0093 13       		.uleb128 0x13
 966 0094 01       		.byte	0x1
 967 0095 01       		.uleb128 0x1
 968 0096 13       		.uleb128 0x13
 969 0097 0B       		.uleb128 0xb
 970 0098 0B       		.uleb128 0xb
 971 0099 3A       		.uleb128 0x3a
 972 009a 0B       		.uleb128 0xb
 973 009b 3B       		.uleb128 0x3b
 974 009c 0B       		.uleb128 0xb
 975 009d 00       		.byte	0x0
 976 009e 00       		.byte	0x0
 977 009f 0E       		.uleb128 0xe
 978 00a0 2E       		.uleb128 0x2e
 979 00a1 01       		.byte	0x1
 980 00a2 01       		.uleb128 0x1
 981 00a3 13       		.uleb128 0x13
 982 00a4 3F       		.uleb128 0x3f
 983 00a5 0C       		.uleb128 0xc
 984 00a6 03       		.uleb128 0x3
 985 00a7 0E       		.uleb128 0xe
 986 00a8 3A       		.uleb128 0x3a
 987 00a9 0B       		.uleb128 0xb
 988 00aa 3B       		.uleb128 0x3b
 989 00ab 0B       		.uleb128 0xb
 990 00ac 27       		.uleb128 0x27
 991 00ad 0C       		.uleb128 0xc
 992 00ae 11       		.uleb128 0x11
 993 00af 01       		.uleb128 0x1
 994 00b0 12       		.uleb128 0x12
 995 00b1 01       		.uleb128 0x1
 996 00b2 40       		.uleb128 0x40
ARM GAS  /cygdrive/c/DOCUME~1/witaj/USTAWI~1/Temp/cciROU7y.s 			page 22


 997 00b3 06       		.uleb128 0x6
 998 00b4 00       		.byte	0x0
 999 00b5 00       		.byte	0x0
 1000 00b6 0F       		.uleb128 0xf
 1001 00b7 34       		.uleb128 0x34
 1002 00b8 00       		.byte	0x0
 1003 00b9 03       		.uleb128 0x3
 1004 00ba 0E       		.uleb128 0xe
 1005 00bb 3A       		.uleb128 0x3a
 1006 00bc 0B       		.uleb128 0xb
 1007 00bd 3B       		.uleb128 0x3b
 1008 00be 0B       		.uleb128 0xb
 1009 00bf 49       		.uleb128 0x49
 1010 00c0 13       		.uleb128 0x13
 1011 00c1 02       		.uleb128 0x2
 1012 00c2 0A       		.uleb128 0xa
 1013 00c3 00       		.byte	0x0
 1014 00c4 00       		.byte	0x0
 1015 00c5 10       		.uleb128 0x10
 1016 00c6 2E       		.uleb128 0x2e
 1017 00c7 01       		.byte	0x1
 1018 00c8 01       		.uleb128 0x1
 1019 00c9 13       		.uleb128 0x13
 1020 00ca 03       		.uleb128 0x3
 1021 00cb 0E       		.uleb128 0xe
 1022 00cc 3A       		.uleb128 0x3a
 1023 00cd 0B       		.uleb128 0xb
 1024 00ce 3B       		.uleb128 0x3b
 1025 00cf 0B       		.uleb128 0xb
 1026 00d0 27       		.uleb128 0x27
 1027 00d1 0C       		.uleb128 0xc
 1028 00d2 11       		.uleb128 0x11
 1029 00d3 01       		.uleb128 0x1
 1030 00d4 12       		.uleb128 0x12
 1031 00d5 01       		.uleb128 0x1
 1032 00d6 40       		.uleb128 0x40
 1033 00d7 06       		.uleb128 0x6
 1034 00d8 00       		.byte	0x0
 1035 00d9 00       		.byte	0x0
 1036 00da 11       		.uleb128 0x11
 1037 00db 05       		.uleb128 0x5
 1038 00dc 00       		.byte	0x0
 1039 00dd 03       		.uleb128 0x3
 1040 00de 08       		.uleb128 0x8
 1041 00df 3A       		.uleb128 0x3a
 1042 00e0 0B       		.uleb128 0xb
 1043 00e1 3B       		.uleb128 0x3b
 1044 00e2 0B       		.uleb128 0xb
 1045 00e3 49       		.uleb128 0x49
 1046 00e4 13       		.uleb128 0x13
 1047 00e5 02       		.uleb128 0x2
 1048 00e6 06       		.uleb128 0x6
 1049 00e7 00       		.byte	0x0
 1050 00e8 00       		.byte	0x0
 1051 00e9 12       		.uleb128 0x12
 1052 00ea 0B       		.uleb128 0xb
 1053 00eb 01       		.byte	0x1
ARM GAS  /cygdrive/c/DOCUME~1/witaj/USTAWI~1/Temp/cciROU7y.s 			page 23


 1054 00ec 11       		.uleb128 0x11
 1055 00ed 01       		.uleb128 0x1
 1056 00ee 12       		.uleb128 0x12
 1057 00ef 01       		.uleb128 0x1
 1058 00f0 00       		.byte	0x0
 1059 00f1 00       		.byte	0x0
 1060 00f2 13       		.uleb128 0x13
 1061 00f3 21       		.uleb128 0x21
 1062 00f4 00       		.byte	0x0
 1063 00f5 49       		.uleb128 0x49
 1064 00f6 13       		.uleb128 0x13
 1065 00f7 2F       		.uleb128 0x2f
 1066 00f8 05       		.uleb128 0x5
 1067 00f9 00       		.byte	0x0
 1068 00fa 00       		.byte	0x0
 1069 00fb 14       		.uleb128 0x14
 1070 00fc 35       		.uleb128 0x35
 1071 00fd 00       		.byte	0x0
 1072 00fe 49       		.uleb128 0x49
 1073 00ff 13       		.uleb128 0x13
 1074 0100 00       		.byte	0x0
 1075 0101 00       		.byte	0x0
 1076 0102 15       		.uleb128 0x15
 1077 0103 34       		.uleb128 0x34
 1078 0104 00       		.byte	0x0
 1079 0105 03       		.uleb128 0x3
 1080 0106 0E       		.uleb128 0xe
 1081 0107 3A       		.uleb128 0x3a
 1082 0108 0B       		.uleb128 0xb
 1083 0109 3B       		.uleb128 0x3b
 1084 010a 0B       		.uleb128 0xb
 1085 010b 49       		.uleb128 0x49
 1086 010c 13       		.uleb128 0x13
 1087 010d 1C       		.uleb128 0x1c
 1088 010e 0B       		.uleb128 0xb
 1089 010f 00       		.byte	0x0
 1090 0110 00       		.byte	0x0
 1091 0111 16       		.uleb128 0x16
 1092 0112 34       		.uleb128 0x34
 1093 0113 00       		.byte	0x0
 1094 0114 03       		.uleb128 0x3
 1095 0115 0E       		.uleb128 0xe
 1096 0116 3A       		.uleb128 0x3a
 1097 0117 0B       		.uleb128 0xb
 1098 0118 3B       		.uleb128 0x3b
 1099 0119 0B       		.uleb128 0xb
 1100 011a 49       		.uleb128 0x49
 1101 011b 13       		.uleb128 0x13
 1102 011c 00       		.byte	0x0
 1103 011d 00       		.byte	0x0
 1104 011e 00       		.byte	0x0
 1105              		.section	.debug_pubnames,"",%progbits
 1106 0000 1D000000 		.4byte	0x1d
 1107 0004 0200     		.2byte	0x2
 1108 0006 00000000 		.4byte	.Ldebug_info0
 1109 000a A7030000 		.4byte	0x3a7
 1110 000e 74020000 		.4byte	0x274
ARM GAS  /cygdrive/c/DOCUME~1/witaj/USTAWI~1/Temp/cciROU7y.s 			page 24


 1111 0012 696E6974 		.ascii	"initBtProc\000"
 1111      42745072 
 1111      6F6300
 1112 001d 00000000 		.4byte	0x0
 1113              		.section	.debug_aranges,"",%progbits
 1114 0000 1C000000 		.4byte	0x1c
 1115 0004 0200     		.2byte	0x2
 1116 0006 00000000 		.4byte	.Ldebug_info0
 1117 000a 04       		.byte	0x4
 1118 000b 00       		.byte	0x0
 1119 000c 0000     		.2byte	0x0
 1120 000e 0000     		.2byte	0x0
 1121 0010 00000000 		.4byte	.Ltext0
 1122 0014 40010000 		.4byte	.Letext0-.Ltext0
 1123 0018 00000000 		.4byte	0x0
 1124 001c 00000000 		.4byte	0x0
 1125              		.section	.debug_str,"MS",%progbits,1
 1126              	.LASF13:
 1127 0000 704E6578 		.ascii	"pNextTimeQueue\000"
 1127      7454696D 
 1127      65517565 
 1127      756500
 1128              	.LASF30:
 1129 000f 74436E74 		.ascii	"tCntSem\000"
 1129      53656D00 
 1130              	.LASF20:
 1131 0017 5F744F53 		.ascii	"_tOSPCB__\000"
 1131      5043425F 
 1131      5F00
 1132              	.LASF14:
 1133 0021 7072696F 		.ascii	"prio\000"
 1133      00
 1134              	.LASF9:
 1135 0026 704E6578 		.ascii	"pNextPrioQueueReady\000"
 1135      74507269 
 1135      6F517565 
 1135      75655265 
 1135      61647900 
 1136              	.LASF5:
 1137 003a 7369676E 		.ascii	"signed char\000"
 1137      65642063 
 1137      68617200 
 1138              	.LASF38:
 1139 0046 74427452 		.ascii	"tBtRecord\000"
 1139      65636F72 
 1139      6400
 1140              	.LASF34:
 1141 0050 6C6F6E67 		.ascii	"long long unsigned int\000"
 1141      206C6F6E 
 1141      6720756E 
 1141      7369676E 
 1141      65642069 
 1142              	.LASF40:
 1143 0067 72784368 		.ascii	"rxChar\000"
 1143      617200
 1144              	.LASF19:
 1145 006e 744F5350 		.ascii	"tOSPCB\000"
ARM GAS  /cygdrive/c/DOCUME~1/witaj/USTAWI~1/Temp/cciROU7y.s 			page 25


 1145      434200
 1146              	.LASF21:
 1147 0075 5F745072 		.ascii	"_tPrioQueue_\000"
 1147      696F5175 
 1147      6575655F 
 1147      00
 1148              	.LASF43:
 1149 0082 70696442 		.ascii	"pidBt\000"
 1149      7400
 1150              	.LASF32:
 1151 0088 6C6F6E67 		.ascii	"long long int\000"
 1151      206C6F6E 
 1151      6720696E 
 1151      7400
 1152              	.LASF7:
 1153 0096 74426F6F 		.ascii	"tBool\000"
 1153      6C00
 1154              	.LASF54:
 1155 009c 696E6974 		.ascii	"initBtProc\000"
 1155      42745072 
 1155      6F6300
 1156              	.LASF46:
 1157 00a7 62744375 		.ascii	"btCursor\000"
 1157      72736F72 
 1157      00
 1158              	.LASF0:
 1159 00b0 74553136 		.ascii	"tU16\000"
 1159      00
 1160              	.LASF31:
 1161 00b5 6C6F6E67 		.ascii	"long int\000"
 1161      20696E74 
 1161      00
 1162              	.LASF50:
 1163 00be 666F756E 		.ascii	"foundBtUnits\000"
 1163      64427455 
 1163      6E697473 
 1163      00
 1164              	.LASF52:
 1165 00cb 62742E63 		.ascii	"bt.c\000"
 1165      00
 1166              	.LASF48:
 1167 00d0 6274436F 		.ascii	"btCommandMode\000"
 1167      6D6D616E 
 1167      644D6F64 
 1167      6500
 1168              	.LASF42:
 1169 00de 70726F63 		.ascii	"procBtStack\000"
 1169      42745374 
 1169      61636B00 
 1170              	.LASF27:
 1171 00ea 77616974 		.ascii	"waitQ\000"
 1171      5100
 1172              	.LASF4:
 1173 00f0 756E7369 		.ascii	"unsigned int\000"
 1173      676E6564 
 1173      20696E74 
 1173      00
ARM GAS  /cygdrive/c/DOCUME~1/witaj/USTAWI~1/Temp/cciROU7y.s 			page 26


 1174              	.LASF35:
 1175 00fd 61637469 		.ascii	"active\000"
 1175      766500
 1176              	.LASF24:
 1177 0104 6C6F6E67 		.ascii	"long unsigned int\000"
 1177      20756E73 
 1177      69676E65 
 1177      6420696E 
 1177      7400
 1178              	.LASF2:
 1179 0116 73686F72 		.ascii	"short unsigned int\000"
 1179      7420756E 
 1179      7369676E 
 1179      65642069 
 1179      6E7400
 1180              	.LASF16:
 1181 0129 736C6565 		.ascii	"sleep\000"
 1181      7000
 1182              	.LASF53:
 1183 012f 2F637967 		.ascii	"/cygdrive/c/Documents and Settings/witaj/Moje dokum"
 1183      64726976 
 1183      652F632F 
 1183      446F6375 
 1183      6D656E74 
 1184 0162 656E7479 		.ascii	"enty/GitHub/Snake/src\000"
 1184      2F476974 
 1184      4875622F 
 1184      536E616B 
 1184      652F7372 
 1185              	.LASF3:
 1186 0178 74553332 		.ascii	"tU32\000"
 1186      00
 1187              	.LASF11:
 1188 017d 704E6578 		.ascii	"pNextPrioQueueEvent\000"
 1188      74507269 
 1188      6F517565 
 1188      75654576 
 1188      656E7400 
 1189              	.LASF26:
 1190 0191 5F744F53 		.ascii	"_tOSEvent_\000"
 1190      4576656E 
 1190      745F00
 1191              	.LASF36:
 1192 019c 62744164 		.ascii	"btAddress\000"
 1192      64726573 
 1192      7300
 1193              	.LASF39:
 1194 01a6 6572726F 		.ascii	"error\000"
 1194      7200
 1195              	.LASF17:
 1196 01ac 7053746B 		.ascii	"pStkOrg\000"
 1196      4F726700 
 1197              	.LASF8:
 1198 01b4 7053746B 		.ascii	"pStk\000"
 1198      00
 1199              	.LASF49:
 1200 01b9 6C6F6361 		.ascii	"localName\000"
ARM GAS  /cygdrive/c/DOCUME~1/witaj/USTAWI~1/Temp/cciROU7y.s 			page 27


 1200      6C4E616D 
 1200      6500
 1201              	.LASF1:
 1202 01c3 756E7369 		.ascii	"unsigned char\000"
 1202      676E6564 
 1202      20636861 
 1202      7200
 1203              	.LASF51:
 1204 01d1 474E5520 		.ascii	"GNU C 4.1.1\000"
 1204      4320342E 
 1204      312E3100 
 1205              	.LASF6:
 1206 01dd 73686F72 		.ascii	"short int\000"
 1206      7420696E 
 1206      7400
 1207              	.LASF15:
 1208 01e7 666C6167 		.ascii	"flag\000"
 1208      00
 1209              	.LASF33:
 1210 01ec 63686172 		.ascii	"char\000"
 1210      00
 1211              	.LASF18:
 1212 01f1 73746163 		.ascii	"stackSize\000"
 1212      6B53697A 
 1212      6500
 1213              	.LASF55:
 1214 01fb 70726F63 		.ascii	"procBt\000"
 1214      427400
 1215              	.LASF22:
 1216 0202 70507269 		.ascii	"pPrioList\000"
 1216      6F4C6973 
 1216      7400
 1217              	.LASF45:
 1218 020c 72656376 		.ascii	"recvSem\000"
 1218      53656D00 
 1219              	.LASF41:
 1220 0214 6E6F7468 		.ascii	"nothing\000"
 1220      696E6700 
 1221              	.LASF23:
 1222 021c 70504342 		.ascii	"pPCBs\000"
 1222      7300
 1223              	.LASF28:
 1224 0222 744F5345 		.ascii	"tOSEvent\000"
 1224      76656E74 
 1224      00
 1225              	.LASF12:
 1226 022b 70507265 		.ascii	"pPrevPrioQueueEvent\000"
 1226      76507269 
 1226      6F517565 
 1226      75654576 
 1226      656E7400 
 1227              	.LASF47:
 1228 023f 6274536C 		.ascii	"btSleepState\000"
 1228      65657053 
 1228      74617465 
 1228      00
 1229              	.LASF25:
ARM GAS  /cygdrive/c/DOCUME~1/witaj/USTAWI~1/Temp/cciROU7y.s 			page 28


 1230 024c 74507269 		.ascii	"tPrioQueue\000"
 1230      6F517565 
 1230      756500
 1231              	.LASF29:
 1232 0257 5F74436E 		.ascii	"_tCntSem_\000"
 1232      7453656D 
 1232      5F00
 1233              	.LASF10:
 1234 0261 70507265 		.ascii	"pPrevPrioQueueReady\000"
 1234      76507269 
 1234      6F517565 
 1234      75655265 
 1234      61647900 
 1235              	.LASF37:
 1236 0275 62744E61 		.ascii	"btName\000"
 1236      6D6500
 1237              	.LASF44:
 1238 027c 73746F70 		.ascii	"stopRecvProc\000"
 1238      52656376 
 1238      50726F63 
 1238      00
 1239              		.ident	"GCC: (GNU) 4.1.1"
ARM GAS  /cygdrive/c/DOCUME~1/witaj/USTAWI~1/Temp/cciROU7y.s 			page 29


DEFINED SYMBOLS
                            *ABS*:00000000 bt.c
/cygdrive/c/DOCUME~1/witaj/USTAWI~1/Temp/cciROU7y.s:1      .text:00000000 $t
/cygdrive/c/DOCUME~1/witaj/USTAWI~1/Temp/cciROU7y.s:16     .text:00000000 initBtProc
/cygdrive/c/DOCUME~1/witaj/USTAWI~1/Temp/cciROU7y.s:56     .text:0000003c $d
/cygdrive/c/DOCUME~1/witaj/USTAWI~1/Temp/cciROU7y.s:233    .bss:00000324 recvSem
/cygdrive/c/DOCUME~1/witaj/USTAWI~1/Temp/cciROU7y.s:230    .bss:00000321 pidBt
/cygdrive/c/DOCUME~1/witaj/USTAWI~1/Temp/cciROU7y.s:89     .text:0000004c procBt
/cygdrive/c/DOCUME~1/witaj/USTAWI~1/Temp/cciROU7y.s:228    .bss:00000001 procBtStack
/cygdrive/c/DOCUME~1/witaj/USTAWI~1/Temp/cciROU7y.s:86     .text:0000004c $t
/cygdrive/c/DOCUME~1/witaj/USTAWI~1/Temp/cciROU7y.s:214    .text:0000011c $d
/cygdrive/c/DOCUME~1/witaj/USTAWI~1/Temp/cciROU7y.s:226    .bss:00000000 stopRecvProc

UNDEFINED SYMBOLS
osSemInit
osCreateProcess
osStartProcess
resetBT
osSleep
initUart1
uart1SendString
osSemTake
consolGetChar
uart1SendChar
uart1GetChar
simplePrintf
