ARM GAS  /cygdrive/c/DOCUME~1/witaj/USTAWI~1/Temp/ccXYHwTB.s 			page 1


   1              		.code	16
   2              		.file	"main.c"
   3              		.section	.debug_abbrev,"",%progbits
   4              	.Ldebug_abbrev0:
   5              		.section	.debug_info,"",%progbits
   6              	.Ldebug_info0:
   7              		.section	.debug_line,"",%progbits
   8              	.Ldebug_line0:
   9 0000 D3000000 		.text
   9      02005100 
   9      00000201 
   9      FB0E0D00 
   9      01010101 
  10              	.Ltext0:
  11              		.align	2
  12              		.global	appTick
  13              		.code 16
  14              		.thumb_func
  15              		.type	appTick, %function
  16              	appTick:
  17              	.LFB7:
  18              		.file 1 "main.c"
   1:main.c        **** /******************************************************************************
   2:main.c        ****  *
   3:main.c        ****  * Copyright:
   4:main.c        ****  *    (C) 2006 Embedded Artists AB
   5:main.c        ****  *
   6:main.c        ****  * File:
   7:main.c        ****  *    main.c
   8:main.c        ****  *
   9:main.c        ****  * Description:
  10:main.c        ****  *    Main function of the "LPC2104 Color LCD Game Board with Bluetooth"
  11:main.c        ****  *
  12:main.c        ****  *****************************************************************************/
  13:main.c        **** 
  14:main.c        **** /******************************************************************************
  15:main.c        ****  * Includes
  16:main.c        ****  *****************************************************************************/
  17:main.c        **** #include "../pre_emptive_os/api/osapi.h"
  18:main.c        **** #include "../pre_emptive_os/api/general.h"
  19:main.c        **** #include <printf_P.h>
  20:main.c        **** #include <ea_init.h>
  21:main.c        **** #include <stdlib.h>
  22:main.c        **** 
  23:main.c        **** #include "lcd.h"
  24:main.c        **** #include "key.h"
  25:main.c        **** #include "uart.h"
  26:main.c        **** #include "snake.h"
  27:main.c        **** #include "bt.h"
  28:main.c        **** #include "hw.h"
  29:main.c        **** 
  30:main.c        **** /******************************************************************************
  31:main.c        ****  * Typedefs and defines
  32:main.c        ****  *****************************************************************************/
  33:main.c        **** #define PROC1_STACK_SIZE 800
  34:main.c        **** #define INIT_STACK_SIZE  600
  35:main.c        **** 
ARM GAS  /cygdrive/c/DOCUME~1/witaj/USTAWI~1/Temp/ccXYHwTB.s 			page 2


  36:main.c        **** 
  37:main.c        **** /*****************************************************************************
  38:main.c        ****  * Global variables
  39:main.c        ****  ****************************************************************************/
  40:main.c        **** volatile tU32 ms;
  41:main.c        **** 
  42:main.c        **** 
  43:main.c        **** /*****************************************************************************
  44:main.c        ****  * Local variables
  45:main.c        ****  ****************************************************************************/
  46:main.c        **** static tU8 proc1Stack[PROC1_STACK_SIZE];
  47:main.c        **** static tU8 initStack[INIT_STACK_SIZE];
  48:main.c        **** static tU8 pid1;
  49:main.c        **** 
  50:main.c        **** static tU8 contrast = 56;
  51:main.c        **** static tU8 cursor   = 0;
  52:main.c        **** 
  53:main.c        **** tU8 memblock[] = {'W', 'i', 'a', 'd', 'o', 'm', 'o', 's', 'c', ' ', 'w', 'y', 's', 'l', 'a', 'n', '
  54:main.c        **** int memblockSize = 30;
  55:main.c        **** 
  56:main.c        **** 
  57:main.c        **** /*****************************************************************************
  58:main.c        ****  * Local prototypes
  59:main.c        ****  ****************************************************************************/
  60:main.c        **** static void proc1(void* arg);
  61:main.c        **** static void initProc(void* arg);
  62:main.c        **** 
  63:main.c        **** 
  64:main.c        **** /*****************************************************************************
  65:main.c        ****  *
  66:main.c        ****  * Description:
  67:main.c        ****  *    The first function to execute 
  68:main.c        ****  *
  69:main.c        ****  ****************************************************************************/
  70:main.c        **** int
  71:main.c        **** main(void)
  72:main.c        **** {
  73:main.c        ****   tU8 error;
  74:main.c        ****   tU8 pid;
  75:main.c        ****   
  76:main.c        ****   osInit();
  77:main.c        **** 
  78:main.c        ****   //immediate initilaizeation of hardware I/O pins
  79:main.c        ****   immediateIoInit();
  80:main.c        ****   
  81:main.c        ****   osCreateProcess(initProc, initStack, INIT_STACK_SIZE, &pid, 1, NULL, &error);
  82:main.c        ****   osStartProcess(pid, &error);
  83:main.c        ****   
  84:main.c        ****   osStart();
  85:main.c        ****   return 0;
  86:main.c        **** }
  87:main.c        **** 
  88:main.c        **** 
  89:main.c        **** /*****************************************************************************
  90:main.c        ****  *
  91:main.c        ****  * Description:
  92:main.c        ****  *    Draw cursor in main menu
ARM GAS  /cygdrive/c/DOCUME~1/witaj/USTAWI~1/Temp/ccXYHwTB.s 			page 3


  93:main.c        ****  *
  94:main.c        ****  * Params:
  95:main.c        ****  *    [in] cursor - Cursor position
  96:main.c        ****  *
  97:main.c        ****  ****************************************************************************/
  98:main.c        **** static void
  99:main.c        **** drawMenuCursor(tU8 cursor)
 100:main.c        **** {
 101:main.c        ****   tU32 row;
 102:main.c        **** 
 103:main.c        ****   for(row=0; row<4; row++)
 104:main.c        ****   {
 105:main.c        ****     lcdGotoxy(18,52+(14*row));
 106:main.c        ****     if(row == cursor)
 107:main.c        ****       lcdColor(0x00,0xe0);
 108:main.c        ****     else
 109:main.c        ****       lcdColor(0x00,0xfd);
 110:main.c        ****     
 111:main.c        ****     switch(row)
 112:main.c        ****     {
 113:main.c        ****       case 0: lcdPuts("Snake/TRON"); break;
 114:main.c        **** 	  case 1: lcdPuts("Send score"); break;
 115:main.c        ****       default: break;
 116:main.c        ****     }
 117:main.c        ****   }
 118:main.c        **** }
 119:main.c        **** 
 120:main.c        **** 
 121:main.c        **** /*****************************************************************************
 122:main.c        ****  *
 123:main.c        ****  * Description:
 124:main.c        ****  *    Draw main menu
 125:main.c        ****  *
 126:main.c        ****  ****************************************************************************/
 127:main.c        **** static void
 128:main.c        **** drawMenu(void)
 129:main.c        **** {
 130:main.c        ****   lcdColor(0,0);
 131:main.c        ****   lcdClrscr();
 132:main.c        **** 
 133:main.c        ****   //lcdRect(14, 0, 102, 128, 0x6d);
 134:main.c        ****   //lcdRect(15, 17, 100, 110, 0);
 135:main.c        ****   lcdRect(14, 32, 102, 64, 0x6d);
 136:main.c        ****   lcdRect(15, 49, 100, 46, 0);
 137:main.c        **** 
 138:main.c        ****   lcdGotoxy(48,33);
 139:main.c        ****   lcdColor(0x6d,0);
 140:main.c        ****   lcdPuts("MENU");
 141:main.c        ****   drawMenuCursor(cursor);
 142:main.c        **** }
 143:main.c        **** 
 144:main.c        **** 
 145:main.c        **** /*****************************************************************************
 146:main.c        ****  *
 147:main.c        ****  * Description:
 148:main.c        ****  *    A process entry function 
 149:main.c        ****  *
ARM GAS  /cygdrive/c/DOCUME~1/witaj/USTAWI~1/Temp/ccXYHwTB.s 			page 4


 150:main.c        ****  * Params:
 151:main.c        ****  *    [in] arg - This parameter is not used in this application. 
 152:main.c        ****  *
 153:main.c        ****  ****************************************************************************/
 154:main.c        **** static void
 155:main.c        **** proc1(void* arg)
 156:main.c        **** {
 157:main.c        ****   //shortly bleep with the buzzer and flash with the LEDs
 158:main.c        ****   tU8 i,j;
 159:main.c        **** 
 160:main.c        ****   for(i=0; i<3; i++)
 161:main.c        ****   {
 162:main.c        ****     for(j=0; j<3; j++)
 163:main.c        ****     {
 164:main.c        ****       setBuzzer(TRUE);
 165:main.c        ****       setLED(LED_GREEN, FALSE);
 166:main.c        ****       setLED(LED_RED,   TRUE);
 167:main.c        ****       osSleep(1);
 168:main.c        **** 
 169:main.c        ****       setBuzzer(FALSE);
 170:main.c        ****       setLED(LED_GREEN, TRUE);
 171:main.c        ****       setLED(LED_RED,   FALSE);
 172:main.c        ****       osSleep(1);
 173:main.c        ****     }
 174:main.c        ****     osSleep(10);
 175:main.c        ****   }
 176:main.c        ****   setLED(LED_GREEN, FALSE);
 177:main.c        ****   setLED(LED_RED,   FALSE);
 178:main.c        **** 
 179:main.c        ****   //display startup message
 180:main.c        ****   resetLCD();
 181:main.c        ****   lcdInit();
 182:main.c        **** 
 183:main.c        **** 
 184:main.c        ****   //print menu
 185:main.c        ****   drawMenu();
 186:main.c        ****   
 187:main.c        ****   for(;;)
 188:main.c        ****   {
 189:main.c        ****     tU8 anyKey;
 190:main.c        ****     static tU8 i = 0;
 191:main.c        **** 
 192:main.c        ****     anyKey = checkKey();
 193:main.c        ****     if (anyKey != KEY_NOTHING)
 194:main.c        ****     {
 195:main.c        ****       //select specific function
 196:main.c        ****       if (anyKey == KEY_CENTER)
 197:main.c        ****       {
 198:main.c        ****         switch(cursor)
 199:main.c        ****         {
 200:main.c        ****           case 0: playSnake(); break;
 201:main.c        ****           // Tutaj trzeba podać wiadomosc i rozmiar wiadomosci.
 202:main.c        ****           case 1: sendScore(memblock, memblockSize); break;
 203:main.c        ****           default: break;
 204:main.c        ****         }
 205:main.c        ****         drawMenu();
 206:main.c        ****       }
ARM GAS  /cygdrive/c/DOCUME~1/witaj/USTAWI~1/Temp/ccXYHwTB.s 			page 5


 207:main.c        ****       
 208:main.c        ****       //move cursor up
 209:main.c        ****       else if (anyKey == KEY_UP)
 210:main.c        ****       {
 211:main.c        ****         if (cursor > 0)
 212:main.c        ****           cursor--;
 213:main.c        ****         else
 214:main.c        ****           cursor = 1;
 215:main.c        ****         drawMenuCursor(cursor);
 216:main.c        ****       }
 217:main.c        ****       
 218:main.c        ****       //move cursor down
 219:main.c        ****       else if (anyKey == KEY_DOWN)
 220:main.c        ****       {
 221:main.c        ****         if (cursor < 1)
 222:main.c        ****           cursor++;
 223:main.c        ****         else
 224:main.c        ****           cursor = 0;
 225:main.c        ****         drawMenuCursor(cursor);
 226:main.c        ****       }
 227:main.c        ****       
 228:main.c        ****       //adjust contrast
 229:main.c        ****       else if (anyKey == KEY_RIGHT)
 230:main.c        ****       {
 231:main.c        ****         contrast++;
 232:main.c        ****         if (contrast > 127)
 233:main.c        ****           contrast = 127;
 234:main.c        ****         lcdContrast(contrast);
 235:main.c        ****       }
 236:main.c        ****       else if (anyKey == KEY_LEFT)
 237:main.c        ****       {
 238:main.c        ****         if (contrast > 0)
 239:main.c        ****           contrast--;
 240:main.c        ****         lcdContrast(contrast);
 241:main.c        ****       }
 242:main.c        ****     }
 243:main.c        ****     osSleep(20);
 244:main.c        ****   }
 245:main.c        **** }
 246:main.c        **** 
 247:main.c        **** 
 248:main.c        **** /*****************************************************************************
 249:main.c        ****  *
 250:main.c        ****  * Description:
 251:main.c        ****  *    The entry function for the initialization process. 
 252:main.c        ****  *
 253:main.c        ****  * Params:
 254:main.c        ****  *    [in] arg - This parameter is not used in this application. 
 255:main.c        ****  *
 256:main.c        ****  ****************************************************************************/
 257:main.c        **** static void
 258:main.c        **** initProc(void* arg)
 259:main.c        **** {
 260:main.c        ****   tU8 error;
 261:main.c        **** 
 262:main.c        ****   eaInit();
 263:main.c        ****   
ARM GAS  /cygdrive/c/DOCUME~1/witaj/USTAWI~1/Temp/ccXYHwTB.s 			page 6


 264:main.c        ****   osCreateProcess(proc1, proc1Stack, PROC1_STACK_SIZE, &pid1, 3, NULL, &error);
 265:main.c        ****   osStartProcess(pid1, &error);
 266:main.c        **** 
 267:main.c        ****   initBtProc();
 268:main.c        ****   
 269:main.c        ****   initKeyProc();
 270:main.c        **** 
 271:main.c        ****   osDeleteProcess();
 272:main.c        **** }
 273:main.c        **** 
 274:main.c        **** /*****************************************************************************
 275:main.c        ****  *
 276:main.c        ****  * Description:
 277:main.c        ****  *    The timer tick entry function that is called once every timer tick
 278:main.c        ****  *    interrupt in the RTOS. Observe that any processing in this
 279:main.c        ****  *    function must be kept as short as possible since this function
 280:main.c        ****  *    execute in interrupt context.
 281:main.c        ****  *
 282:main.c        ****  * Params:
 283:main.c        ****  *    [in] elapsedTime - The number of elapsed milliseconds since last call.
 284:main.c        ****  *
 285:main.c        ****  ****************************************************************************/
 286:main.c        **** void
 287:main.c        **** appTick(tU32 elapsedTime)
 288:main.c        **** {
  19              		.loc 1 288 0
  20              	.LVL0:
 289:main.c        ****   ms += elapsedTime;
  21              		.loc 1 289 0
  22 0000 024A     		ldr	r2, .L3
  23 0002 1368     		ldr	r3, [r2]
  24 0004 1B18     		add	r3, r3, r0
  25              		.loc 1 288 0
  26              		@ lr needed for prologue
  27              		.loc 1 289 0
  28 0006 1360     		str	r3, [r2]
 290:main.c        **** }
  29              		.loc 1 290 0
  30              		@ sp needed for prologue
  31 0008 7047     		bx	lr
  32              	.L4:
  33 000a 0000     		.align	2
  34              	.L3:
  35 000c 00000000 		.word	ms
  36              	.LFE7:
  37              		.size	appTick, .-appTick
  38              		.align	2
  39              		.global	main
  40              		.code 16
  41              		.thumb_func
  42              		.type	main, %function
  43              	main:
  44              	.LFB2:
  45              		.loc 1 72 0
  46 0010 30B5     		push	{r4, r5, lr}
  47              	.LCFI0:
  48 0012 84B0     		sub	sp, sp, #16
ARM GAS  /cygdrive/c/DOCUME~1/witaj/USTAWI~1/Temp/ccXYHwTB.s 			page 7


  49              	.LCFI1:
  50              		.loc 1 76 0
  51 0014 FFF7FEFF 		bl	osInit
  52              		.loc 1 81 0
  53 0018 6D46     		mov	r5, sp
  54              		.loc 1 79 0
  55 001a FFF7FEFF 		bl	immediateIoInit
  56              		.loc 1 81 0
  57 001e 0123     		mov	r3, #1
  58 0020 0E35     		add	r5, r5, #14
  59 0022 0093     		str	r3, [sp]
  60 0024 6C46     		mov	r4, sp
  61 0026 0023     		mov	r3, #0
  62 0028 9622     		mov	r2, #150
  63 002a 9200     		lsl	r2, r2, #2
  64 002c 0193     		str	r3, [sp, #4]
  65 002e 0F34     		add	r4, r4, #15
  66 0030 2B1C     		mov	r3, r5
  67 0032 0848     		ldr	r0, .L7
  68 0034 0849     		ldr	r1, .L7+4
  69 0036 0294     		str	r4, [sp, #8]
  70 0038 FFF7FEFF 		bl	osCreateProcess
  71              	.LVL1:
  72              		.loc 1 82 0
  73 003c 2878     		ldrb	r0, [r5]
  74 003e 211C     		mov	r1, r4
  75 0040 FFF7FEFF 		bl	osStartProcess
  76              		.loc 1 84 0
  77 0044 FFF7FEFF 		bl	osStart
  78              		.loc 1 86 0
  79 0048 0020     		mov	r0, #0
  80 004a 04B0     		add	sp, sp, #16
  81              		@ sp needed for prologue
  82 004c 30BC     		pop	{r4, r5}
  83 004e 02BC     		pop	{r1}
  84 0050 0847     		bx	r1
  85              	.L8:
  86 0052 0000     		.align	2
  87              	.L7:
  88 0054 00000000 		.word	initProc
  89 0058 21030000 		.word	initStack
  90              	.LFE2:
  91              		.size	main, .-main
  92              		.align	2
  93              		.code 16
  94              		.thumb_func
  95              		.type	initProc, %function
  96              	initProc:
  97              	.LFB6:
  98              		.loc 1 259 0
  99 005c 30B5     		push	{r4, r5, lr}
 100              	.LCFI2:
 101              	.LVL2:
 102 005e 84B0     		sub	sp, sp, #16
 103              	.LCFI3:
 104              		.loc 1 262 0
 105 0060 FFF7FEFF 		bl	eaInit
ARM GAS  /cygdrive/c/DOCUME~1/witaj/USTAWI~1/Temp/ccXYHwTB.s 			page 8


 106              	.LVL3:
 107              		.loc 1 264 0
 108 0064 0E4D     		ldr	r5, .L11
 109 0066 0323     		mov	r3, #3
 110 0068 0093     		str	r3, [sp]
 111 006a 6C46     		mov	r4, sp
 112 006c 0023     		mov	r3, #0
 113 006e C822     		mov	r2, #200
 114 0070 9200     		lsl	r2, r2, #2
 115 0072 0193     		str	r3, [sp, #4]
 116 0074 0F34     		add	r4, r4, #15
 117 0076 2B1C     		mov	r3, r5
 118 0078 0A48     		ldr	r0, .L11+4
 119 007a 0B49     		ldr	r1, .L11+8
 120 007c 0294     		str	r4, [sp, #8]
 121 007e FFF7FEFF 		bl	osCreateProcess
 122              		.loc 1 265 0
 123 0082 2878     		ldrb	r0, [r5]
 124 0084 211C     		mov	r1, r4
 125 0086 FFF7FEFF 		bl	osStartProcess
 126              		.loc 1 267 0
 127 008a FFF7FEFF 		bl	initBtProc
 128              		.loc 1 269 0
 129 008e FFF7FEFF 		bl	initKeyProc
 130              		.loc 1 271 0
 131 0092 FFF7FEFF 		bl	osDeleteProcess
 132              		.loc 1 272 0
 133 0096 04B0     		add	sp, sp, #16
 134              		@ sp needed for prologue
 135 0098 30BC     		pop	{r4, r5}
 136 009a 01BC     		pop	{r0}
 137 009c 0047     		bx	r0
 138              	.L12:
 139 009e 0000     		.align	2
 140              	.L11:
 141 00a0 79050000 		.word	pid1
 142 00a4 00000000 		.word	proc1
 143 00a8 01000000 		.word	proc1Stack
 144              	.LFE6:
 145              		.size	initProc, .-initProc
 146              		.section	.rodata.str1.4,"aMS",%progbits,1
 147              		.align	2
 148              	.LC6:
 149 0000 536E616B 		.ascii	"Snake/TRON\000"
 149      652F5452 
 149      4F4E00
 150 000b 00       		.align	2
 151              	.LC8:
 152 000c 53656E64 		.ascii	"Send score\000"
 152      2073636F 
 152      726500
 153              		.text
 154              		.align	2
 155              		.code 16
 156              		.thumb_func
 157              		.type	drawMenuCursor, %function
 158              	drawMenuCursor:
ARM GAS  /cygdrive/c/DOCUME~1/witaj/USTAWI~1/Temp/ccXYHwTB.s 			page 9


 159              	.LFB3:
 160              		.loc 1 100 0
 161 00ac 70B5     		push	{r4, r5, r6, lr}
 162              	.LCFI4:
 163              	.LVL4:
 164              		.loc 1 100 0
 165 00ae 0006     		lsl	r0, r0, #24
 166              	.LVL5:
 167 00b0 060E     		lsr	r6, r0, #24
 168              	.LVL6:
 169 00b2 0024     		mov	r4, #0
 170              	.LVL7:
 171 00b4 3425     		mov	r5, #52
 172              	.L33:
 173              		.loc 1 105 0
 174 00b6 2906     		lsl	r1, r5, #24
 175 00b8 090E     		lsr	r1, r1, #24
 176 00ba 1220     		mov	r0, #18
 177 00bc FFF7FEFF 		bl	lcdGotoxy
 178              		.loc 1 106 0
 179 00c0 B442     		cmp	r4, r6
 180 00c2 02D1     		bne	.L15
 181              		.loc 1 107 0
 182 00c4 0020     		mov	r0, #0
 183 00c6 E021     		mov	r1, #224
 184 00c8 01E0     		b	.L31
 185              	.L15:
 186              		.loc 1 109 0
 187 00ca 0020     		mov	r0, #0
 188 00cc FD21     		mov	r1, #253
 189              	.L31:
 190 00ce FFF7FEFF 		bl	lcdColor
 191              		.loc 1 111 0
 192 00d2 002C     		cmp	r4, #0
 193 00d4 02D0     		beq	.L19
 194 00d6 012C     		cmp	r4, #1
 195 00d8 08D1     		bne	.L28
 196 00da 01E0     		b	.L20
 197              	.L19:
 198              		.loc 1 113 0
 199 00dc 0748     		ldr	r0, .L34
 200 00de 00E0     		b	.L32
 201              	.L20:
 202              		.loc 1 114 0
 203 00e0 0748     		ldr	r0, .L34+4
 204              	.L32:
 205 00e2 FFF7FEFF 		bl	lcdPuts
 206              		.loc 1 103 0
 207 00e6 0134     		add	r4, r4, #1
 208 00e8 0E35     		add	r5, r5, #14
 209 00ea E4E7     		b	.L33
 210              	.L28:
 211 00ec 0134     		add	r4, r4, #1
 212 00ee 0E35     		add	r5, r5, #14
 213 00f0 032C     		cmp	r4, #3
 214 00f2 E0D9     		bls	.L33
 215              		.loc 1 118 0
ARM GAS  /cygdrive/c/DOCUME~1/witaj/USTAWI~1/Temp/ccXYHwTB.s 			page 10


 216              		@ sp needed for prologue
 217              	.LVL8:
 218              	.LVL9:
 219 00f4 70BC     		pop	{r4, r5, r6}
 220 00f6 01BC     		pop	{r0}
 221 00f8 0047     		bx	r0
 222              	.L35:
 223 00fa 0000     		.align	2
 224              	.L34:
 225 00fc 00000000 		.word	.LC6
 226 0100 0C000000 		.word	.LC8
 227              	.LFE3:
 228              		.size	drawMenuCursor, .-drawMenuCursor
 229              		.section	.rodata.str1.4
 230 0017 00       		.align	2
 231              	.LC10:
 232 0018 4D454E55 		.ascii	"MENU\000"
 232      00
 233 001d 000000   		.text
 234              		.align	2
 235              		.code 16
 236              		.thumb_func
 237              		.type	drawMenu, %function
 238              	drawMenu:
 239              	.LFB4:
 240              		.loc 1 129 0
 241 0104 00B5     		push	{lr}
 242              	.LCFI5:
 243 0106 81B0     		sub	sp, sp, #4
 244              	.LCFI6:
 245              		.loc 1 130 0
 246 0108 0020     		mov	r0, #0
 247 010a 0021     		mov	r1, #0
 248 010c FFF7FEFF 		bl	lcdColor
 249              		.loc 1 131 0
 250 0110 FFF7FEFF 		bl	lcdClrscr
 251              		.loc 1 135 0
 252 0114 6D23     		mov	r3, #109
 253 0116 0093     		str	r3, [sp]
 254 0118 0E20     		mov	r0, #14
 255 011a 2021     		mov	r1, #32
 256 011c 6622     		mov	r2, #102
 257 011e 4023     		mov	r3, #64
 258 0120 FFF7FEFF 		bl	lcdRect
 259              		.loc 1 136 0
 260 0124 0023     		mov	r3, #0
 261 0126 6422     		mov	r2, #100
 262 0128 0093     		str	r3, [sp]
 263 012a 0F20     		mov	r0, #15
 264 012c 2E23     		mov	r3, #46
 265 012e 3121     		mov	r1, #49
 266 0130 FFF7FEFF 		bl	lcdRect
 267              		.loc 1 138 0
 268 0134 3020     		mov	r0, #48
 269 0136 2121     		mov	r1, #33
 270 0138 FFF7FEFF 		bl	lcdGotoxy
 271              		.loc 1 139 0
ARM GAS  /cygdrive/c/DOCUME~1/witaj/USTAWI~1/Temp/ccXYHwTB.s 			page 11


 272 013c 0021     		mov	r1, #0
 273 013e 6D20     		mov	r0, #109
 274 0140 FFF7FEFF 		bl	lcdColor
 275              		.loc 1 140 0
 276 0144 0448     		ldr	r0, .L38
 277 0146 FFF7FEFF 		bl	lcdPuts
 278              		.loc 1 141 0
 279 014a 044B     		ldr	r3, .L38+4
 280 014c 1878     		ldrb	r0, [r3]
 281 014e FFF7ADFF 		bl	drawMenuCursor
 282              		.loc 1 142 0
 283 0152 01B0     		add	sp, sp, #4
 284              		@ sp needed for prologue
 285 0154 01BC     		pop	{r0}
 286 0156 0047     		bx	r0
 287              	.L39:
 288              		.align	2
 289              	.L38:
 290 0158 18000000 		.word	.LC10
 291 015c 00000000 		.word	cursor
 292              	.LFE4:
 293              		.size	drawMenu, .-drawMenu
 294              		.align	2
 295              		.code 16
 296              		.thumb_func
 297              		.type	proc1, %function
 298              	proc1:
 299              	.LFB5:
 300              		.loc 1 156 0
 301 0160 30B5     		push	{r4, r5, lr}
 302              	.LCFI7:
 303              	.LVL10:
 304              		.loc 1 156 0
 305 0162 0025     		mov	r5, #0
 306              	.LVL11:
 307 0164 83E0     		b	.L41
 308              	.LVL12:
 309              	.L42:
 310              		.loc 1 164 0
 311 0166 0120     		mov	r0, #1
 312              	.LVL13:
 313 0168 FFF7FEFF 		bl	setBuzzer
 314              		.loc 1 165 0
 315 016c 0120     		mov	r0, #1
 316 016e 0021     		mov	r1, #0
 317 0170 FFF7FEFF 		bl	setLED
 318              		.loc 1 166 0
 319 0174 0121     		mov	r1, #1
 320 0176 0220     		mov	r0, #2
 321 0178 FFF7FEFF 		bl	setLED
 322              		.loc 1 167 0
 323 017c 0120     		mov	r0, #1
 324 017e FFF7FEFF 		bl	osSleep
 325              		.loc 1 169 0
 326 0182 0020     		mov	r0, #0
 327 0184 FFF7FEFF 		bl	setBuzzer
 328              		.loc 1 170 0
ARM GAS  /cygdrive/c/DOCUME~1/witaj/USTAWI~1/Temp/ccXYHwTB.s 			page 12


 329 0188 0120     		mov	r0, #1
 330 018a 0121     		mov	r1, #1
 331 018c FFF7FEFF 		bl	setLED
 332              		.loc 1 171 0
 333 0190 0220     		mov	r0, #2
 334 0192 0021     		mov	r1, #0
 335 0194 FFF7FEFF 		bl	setLED
 336              		.loc 1 172 0
 337 0198 0120     		mov	r0, #1
 338 019a FFF7FEFF 		bl	osSleep
 339              		.loc 1 162 0
 340 019e 631C     		add	r3, r4, #1
 341 01a0 1B06     		lsl	r3, r3, #24
 342 01a2 1C0E     		lsr	r4, r3, #24
 343 01a4 032C     		cmp	r4, #3
 344 01a6 DED1     		bne	.L42
 345              		.loc 1 174 0
 346 01a8 0A20     		mov	r0, #10
 347 01aa FFF7FEFF 		bl	osSleep
 348              		.loc 1 160 0
 349 01ae 6B1C     		add	r3, r5, #1
 350 01b0 1B06     		lsl	r3, r3, #24
 351 01b2 1D0E     		lsr	r5, r3, #24
 352 01b4 032D     		cmp	r5, #3
 353 01b6 5AD1     		bne	.L41
 354              		.loc 1 176 0
 355 01b8 0120     		mov	r0, #1
 356 01ba 0021     		mov	r1, #0
 357 01bc FFF7FEFF 		bl	setLED
 358              		.loc 1 177 0
 359 01c0 0220     		mov	r0, #2
 360 01c2 0021     		mov	r1, #0
 361 01c4 FFF7FEFF 		bl	setLED
 362              		.loc 1 180 0
 363 01c8 FFF7FEFF 		bl	resetLCD
 364              		.loc 1 181 0
 365 01cc FFF7FEFF 		bl	lcdInit
 366              		.loc 1 185 0
 367 01d0 FFF798FF 		bl	drawMenu
 368              	.L45:
 369              	.LBB2:
 370              		.loc 1 192 0
 371 01d4 FFF7FEFF 		bl	checkKey
 372              	.LVL14:
 373              		.loc 1 193 0
 374 01d8 0028     		cmp	r0, #0
 375 01da 44D0     		beq	.L46
 376              		.loc 1 196 0
 377 01dc 1028     		cmp	r0, #16
 378 01de 11D1     		bne	.L48
 379              		.loc 1 198 0
 380 01e0 244B     		ldr	r3, .L78
 381 01e2 1B78     		ldrb	r3, [r3]
 382 01e4 002B     		cmp	r3, #0
 383 01e6 02D0     		beq	.L51
 384 01e8 012B     		cmp	r3, #1
 385 01ea 08D1     		bne	.L50
ARM GAS  /cygdrive/c/DOCUME~1/witaj/USTAWI~1/Temp/ccXYHwTB.s 			page 13


 386 01ec 02E0     		b	.L52
 387              	.L51:
 388              		.loc 1 200 0
 389 01ee FFF7FEFF 		bl	playSnake
 390              	.LVL15:
 391 01f2 04E0     		b	.L50
 392              	.LVL16:
 393              	.L52:
 394              		.loc 1 202 0
 395 01f4 204B     		ldr	r3, .L78+4
 396 01f6 2148     		ldr	r0, .L78+8
 397              	.LVL17:
 398 01f8 1968     		ldr	r1, [r3]
 399 01fa FFF7FEFF 		bl	sendScore
 400              	.LVL18:
 401              	.L50:
 402              		.loc 1 205 0
 403 01fe FFF781FF 		bl	drawMenu
 404              	.LVL19:
 405 0202 30E0     		b	.L46
 406              	.LVL20:
 407              	.L48:
 408              		.loc 1 209 0
 409 0204 0128     		cmp	r0, #1
 410 0206 07D1     		bne	.L53
 411              		.loc 1 211 0
 412 0208 1A4A     		ldr	r2, .L78
 413 020a 1378     		ldrb	r3, [r2]
 414 020c 002B     		cmp	r3, #0
 415 020e 01D0     		beq	.L55
 416              		.loc 1 212 0
 417 0210 013B     		sub	r3, r3, #1
 418 0212 0AE0     		b	.L75
 419              	.L55:
 420              		.loc 1 214 0
 421 0214 1070     		strb	r0, [r2]
 422 0216 09E0     		b	.L76
 423              	.L53:
 424              		.loc 1 219 0
 425 0218 0428     		cmp	r0, #4
 426 021a 0CD1     		bne	.L58
 427              		.loc 1 221 0
 428 021c 154A     		ldr	r2, .L78
 429 021e 1378     		ldrb	r3, [r2]
 430 0220 002B     		cmp	r3, #0
 431 0222 01D1     		bne	.L60
 432              		.loc 1 222 0
 433 0224 0123     		mov	r3, #1
 434 0226 00E0     		b	.L75
 435              	.L60:
 436              		.loc 1 224 0
 437 0228 0023     		mov	r3, #0
 438              	.L75:
 439 022a 1370     		strb	r3, [r2]
 440              	.L76:
 441              		.loc 1 225 0
 442 022c 114B     		ldr	r3, .L78
ARM GAS  /cygdrive/c/DOCUME~1/witaj/USTAWI~1/Temp/ccXYHwTB.s 			page 14


 443 022e 1878     		ldrb	r0, [r3]
 444              	.LVL21:
 445 0230 FFF73CFF 		bl	drawMenuCursor
 446 0234 17E0     		b	.L46
 447              	.LVL22:
 448              	.L58:
 449              		.loc 1 229 0
 450 0236 0228     		cmp	r0, #2
 451 0238 0AD1     		bne	.L63
 452              		.loc 1 231 0
 453 023a 114A     		ldr	r2, .L78+12
 454 023c 1378     		ldrb	r3, [r2]
 455 023e 0133     		add	r3, r3, #1
 456 0240 1B06     		lsl	r3, r3, #24
 457 0242 1B0E     		lsr	r3, r3, #24
 458 0244 1370     		strb	r3, [r2]
 459              		.loc 1 232 0
 460 0246 1B06     		lsl	r3, r3, #24
 461 0248 002B     		cmp	r3, #0
 462 024a 09DA     		bge	.L68
 463              		.loc 1 233 0
 464 024c 7F23     		mov	r3, #127
 465 024e 06E0     		b	.L77
 466              	.L63:
 467              		.loc 1 236 0
 468 0250 0828     		cmp	r0, #8
 469 0252 08D1     		bne	.L46
 470              		.loc 1 238 0
 471 0254 0A4A     		ldr	r2, .L78+12
 472 0256 1378     		ldrb	r3, [r2]
 473 0258 002B     		cmp	r3, #0
 474 025a 01D0     		beq	.L68
 475              		.loc 1 239 0
 476 025c 013B     		sub	r3, r3, #1
 477              	.L77:
 478 025e 1370     		strb	r3, [r2]
 479              	.L68:
 480              		.loc 1 240 0
 481 0260 1078     		ldrb	r0, [r2]
 482              	.LVL23:
 483 0262 FFF7FEFF 		bl	lcdContrast
 484              	.LVL24:
 485              	.L46:
 486              		.loc 1 243 0
 487 0266 1420     		mov	r0, #20
 488              	.LVL25:
 489 0268 FFF7FEFF 		bl	osSleep
 490 026c B2E7     		b	.L45
 491              	.LVL26:
 492              	.L41:
 493              		.loc 1 244 0
 494 026e 0024     		mov	r4, #0
 495 0270 79E7     		b	.L42
 496              	.L79:
 497 0272 0000     		.align	2
 498              	.L78:
 499 0274 00000000 		.word	cursor
ARM GAS  /cygdrive/c/DOCUME~1/witaj/USTAWI~1/Temp/ccXYHwTB.s 			page 15


 500 0278 00000000 		.word	memblockSize
 501 027c 00000000 		.word	memblock
 502 0280 24000000 		.word	contrast
 503              	.LBE2:
 504              	.LFE5:
 505              		.size	proc1, .-proc1
 506              		.global	memblock
 507              		.data
 508              		.type	memblock, %object
 509              		.size	memblock, 30
 510              	memblock:
 511 0000 57       		.byte	87
 512 0001 69       		.byte	105
 513 0002 61       		.byte	97
 514 0003 64       		.byte	100
 515 0004 6F       		.byte	111
 516 0005 6D       		.byte	109
 517 0006 6F       		.byte	111
 518 0007 73       		.byte	115
 519 0008 63       		.byte	99
 520 0009 20       		.byte	32
 521 000a 77       		.byte	119
 522 000b 79       		.byte	121
 523 000c 73       		.byte	115
 524 000d 6C       		.byte	108
 525 000e 61       		.byte	97
 526 000f 6E       		.byte	110
 527 0010 61       		.byte	97
 528 0011 20       		.byte	32
 529 0012 7A       		.byte	122
 530 0013 20       		.byte	32
 531 0014 47       		.byte	71
 532 0015 61       		.byte	97
 533 0016 6D       		.byte	109
 534 0017 65       		.byte	101
 535 0018 62       		.byte	98
 536 0019 6F       		.byte	111
 537 001a 61       		.byte	97
 538 001b 72       		.byte	114
 539 001c 64       		.byte	100
 540 001d 61       		.byte	97
 541              		.global	memblockSize
 542 001e 0000     		.align	2
 543              		.type	memblockSize, %object
 544              		.size	memblockSize, 4
 545              	memblockSize:
 546 0020 1E000000 		.word	30
 547              		.bss
 548              	cursor:
 549 0000 00       		.space	1
 550              		.data
 551              		.type	contrast, %object
 552              		.size	contrast, 1
 553              	contrast:
 554 0024 38       		.byte	56
 555 0025 000000   		.bss
 556              	proc1Stack:
ARM GAS  /cygdrive/c/DOCUME~1/witaj/USTAWI~1/Temp/ccXYHwTB.s 			page 16


 557 0001 00000000 		.space	800
 557      00000000 
 557      00000000 
 557      00000000 
 557      00000000 
 558              	initStack:
 559 0321 00000000 		.space	600
 559      00000000 
 559      00000000 
 559      00000000 
 559      00000000 
 560              	pid1:
 561 0579 00       		.space	1
 562              		.comm	ms,4,4
 563              		.section	.debug_frame,"",%progbits
 564              	.Lframe0:
 565 0000 0C000000 		.4byte	.LECIE0-.LSCIE0
 566              	.LSCIE0:
 567 0004 FFFFFFFF 		.4byte	0xffffffff
 568 0008 01       		.byte	0x1
 569 0009 00       		.ascii	"\000"
 570 000a 01       		.uleb128 0x1
 571 000b 7C       		.sleb128 -4
 572 000c 0E       		.byte	0xe
 573 000d 0C       		.byte	0xc
 574 000e 0D       		.uleb128 0xd
 575 000f 00       		.uleb128 0x0
 576              		.align	2
 577              	.LECIE0:
 578              	.LSFDE0:
 579 0010 0C000000 		.4byte	.LEFDE0-.LASFDE0
 580              	.LASFDE0:
 581 0014 00000000 		.4byte	.Lframe0
 582 0018 00000000 		.4byte	.LFB7
 583 001c 10000000 		.4byte	.LFE7-.LFB7
 584              		.align	2
 585              	.LEFDE0:
 586              	.LSFDE2:
 587 0020 18000000 		.4byte	.LEFDE2-.LASFDE2
 588              	.LASFDE2:
 589 0024 00000000 		.4byte	.Lframe0
 590 0028 10000000 		.4byte	.LFB2
 591 002c 4C000000 		.4byte	.LFE2-.LFB2
 592 0030 42       		.byte	0x4
 593              		.4byte	.LCFI0-.LFB2
 594 0031 0E       		.byte	0xe
 595 0032 0C       		.uleb128 0xc
 596 0033 84       		.byte	0x84
 597 0034 03       		.uleb128 0x3
 598 0035 85       		.byte	0x85
 599 0036 02       		.uleb128 0x2
 600 0037 8E       		.byte	0x8e
 601 0038 01       		.uleb128 0x1
 602 0039 42       		.byte	0x4
 603              		.4byte	.LCFI1-.LCFI0
 604 003a 0E       		.byte	0xe
 605 003b 1C       		.uleb128 0x1c
ARM GAS  /cygdrive/c/DOCUME~1/witaj/USTAWI~1/Temp/ccXYHwTB.s 			page 17


 606              		.align	2
 607              	.LEFDE2:
 608              	.LSFDE4:
 609 003c 18000000 		.4byte	.LEFDE4-.LASFDE4
 610              	.LASFDE4:
 611 0040 00000000 		.4byte	.Lframe0
 612 0044 5C000000 		.4byte	.LFB6
 613 0048 50000000 		.4byte	.LFE6-.LFB6
 614 004c 42       		.byte	0x4
 615              		.4byte	.LCFI2-.LFB6
 616 004d 0E       		.byte	0xe
 617 004e 0C       		.uleb128 0xc
 618 004f 84       		.byte	0x84
 619 0050 03       		.uleb128 0x3
 620 0051 85       		.byte	0x85
 621 0052 02       		.uleb128 0x2
 622 0053 8E       		.byte	0x8e
 623 0054 01       		.uleb128 0x1
 624 0055 42       		.byte	0x4
 625              		.4byte	.LCFI3-.LCFI2
 626 0056 0E       		.byte	0xe
 627 0057 1C       		.uleb128 0x1c
 628              		.align	2
 629              	.LEFDE4:
 630              	.LSFDE6:
 631 0058 18000000 		.4byte	.LEFDE6-.LASFDE6
 632              	.LASFDE6:
 633 005c 00000000 		.4byte	.Lframe0
 634 0060 AC000000 		.4byte	.LFB3
 635 0064 58000000 		.4byte	.LFE3-.LFB3
 636 0068 42       		.byte	0x4
 637              		.4byte	.LCFI4-.LFB3
 638 0069 0E       		.byte	0xe
 639 006a 10       		.uleb128 0x10
 640 006b 84       		.byte	0x84
 641 006c 04       		.uleb128 0x4
 642 006d 85       		.byte	0x85
 643 006e 03       		.uleb128 0x3
 644 006f 86       		.byte	0x86
 645 0070 02       		.uleb128 0x2
 646 0071 8E       		.byte	0x8e
 647 0072 01       		.uleb128 0x1
 648 0073 00       		.align	2
 649              	.LEFDE6:
 650              	.LSFDE8:
 651 0074 14000000 		.4byte	.LEFDE8-.LASFDE8
 652              	.LASFDE8:
 653 0078 00000000 		.4byte	.Lframe0
 654 007c 04010000 		.4byte	.LFB4
 655 0080 5C000000 		.4byte	.LFE4-.LFB4
 656 0084 42       		.byte	0x4
 657              		.4byte	.LCFI5-.LFB4
 658 0085 0E       		.byte	0xe
 659 0086 04       		.uleb128 0x4
 660 0087 8E       		.byte	0x8e
 661 0088 01       		.uleb128 0x1
 662 0089 42       		.byte	0x4
ARM GAS  /cygdrive/c/DOCUME~1/witaj/USTAWI~1/Temp/ccXYHwTB.s 			page 18


 663              		.4byte	.LCFI6-.LCFI5
 664 008a 0E       		.byte	0xe
 665 008b 08       		.uleb128 0x8
 666              		.align	2
 667              	.LEFDE8:
 668              	.LSFDE10:
 669 008c 18000000 		.4byte	.LEFDE10-.LASFDE10
 670              	.LASFDE10:
 671 0090 00000000 		.4byte	.Lframe0
 672 0094 60010000 		.4byte	.LFB5
 673 0098 24010000 		.4byte	.LFE5-.LFB5
 674 009c 42       		.byte	0x4
 675              		.4byte	.LCFI7-.LFB5
 676 009d 0E       		.byte	0xe
 677 009e 0C       		.uleb128 0xc
 678 009f 84       		.byte	0x84
 679 00a0 03       		.uleb128 0x3
 680 00a1 85       		.byte	0x85
 681 00a2 02       		.uleb128 0x2
 682 00a3 8E       		.byte	0x8e
 683 00a4 01       		.uleb128 0x1
 684 00a5 000000   		.align	2
 685              	.LEFDE10:
 686              		.file 2 "./startup/../pre_emptive_os/api/../api/general.h"
 687              		.text
 688              	.Letext0:
 689              		.section	.debug_loc,"",%progbits
 690              	.Ldebug_loc0:
 691              	.LLST1:
 692 0000 10000000 		.4byte	.LFB2-.Ltext0
 693 0004 12000000 		.4byte	.LCFI0-.Ltext0
 694 0008 0100     		.2byte	0x1
 695 000a 5D       		.byte	0x5d
 696 000b 12000000 		.4byte	.LCFI0-.Ltext0
 697 000f 14000000 		.4byte	.LCFI1-.Ltext0
 698 0013 0200     		.2byte	0x2
 699 0015 7D       		.byte	0x7d
 700 0016 0C       		.sleb128 12
 701 0017 14000000 		.4byte	.LCFI1-.Ltext0
 702 001b 5C000000 		.4byte	.LFE2-.Ltext0
 703 001f 0200     		.2byte	0x2
 704 0021 7D       		.byte	0x7d
 705 0022 1C       		.sleb128 28
 706 0023 00000000 		.4byte	0x0
 707 0027 00000000 		.4byte	0x0
 708              	.LLST2:
 709 002b 5C000000 		.4byte	.LFB6-.Ltext0
 710 002f 5E000000 		.4byte	.LCFI2-.Ltext0
 711 0033 0100     		.2byte	0x1
 712 0035 5D       		.byte	0x5d
 713 0036 5E000000 		.4byte	.LCFI2-.Ltext0
 714 003a 60000000 		.4byte	.LCFI3-.Ltext0
 715 003e 0200     		.2byte	0x2
 716 0040 7D       		.byte	0x7d
 717 0041 0C       		.sleb128 12
 718 0042 60000000 		.4byte	.LCFI3-.Ltext0
 719 0046 AC000000 		.4byte	.LFE6-.Ltext0
ARM GAS  /cygdrive/c/DOCUME~1/witaj/USTAWI~1/Temp/ccXYHwTB.s 			page 19


 720 004a 0200     		.2byte	0x2
 721 004c 7D       		.byte	0x7d
 722 004d 1C       		.sleb128 28
 723 004e 00000000 		.4byte	0x0
 724 0052 00000000 		.4byte	0x0
 725              	.LLST3:
 726 0056 5E000000 		.4byte	.LVL2-.Ltext0
 727 005a 64000000 		.4byte	.LVL3-.Ltext0
 728 005e 0100     		.2byte	0x1
 729 0060 50       		.byte	0x50
 730 0061 00000000 		.4byte	0x0
 731 0065 00000000 		.4byte	0x0
 732              	.LLST4:
 733 0069 AC000000 		.4byte	.LFB3-.Ltext0
 734 006d AE000000 		.4byte	.LCFI4-.Ltext0
 735 0071 0100     		.2byte	0x1
 736 0073 5D       		.byte	0x5d
 737 0074 AE000000 		.4byte	.LCFI4-.Ltext0
 738 0078 04010000 		.4byte	.LFE3-.Ltext0
 739 007c 0200     		.2byte	0x2
 740 007e 7D       		.byte	0x7d
 741 007f 10       		.sleb128 16
 742 0080 00000000 		.4byte	0x0
 743 0084 00000000 		.4byte	0x0
 744              	.LLST5:
 745 0088 AE000000 		.4byte	.LVL4-.Ltext0
 746 008c B0000000 		.4byte	.LVL5-.Ltext0
 747 0090 0100     		.2byte	0x1
 748 0092 50       		.byte	0x50
 749 0093 B2000000 		.4byte	.LVL6-.Ltext0
 750 0097 F4000000 		.4byte	.LVL9-.Ltext0
 751 009b 0100     		.2byte	0x1
 752 009d 56       		.byte	0x56
 753 009e 00000000 		.4byte	0x0
 754 00a2 00000000 		.4byte	0x0
 755              	.LLST6:
 756 00a6 B4000000 		.4byte	.LVL7-.Ltext0
 757 00aa F4000000 		.4byte	.LVL8-.Ltext0
 758 00ae 0100     		.2byte	0x1
 759 00b0 54       		.byte	0x54
 760 00b1 00000000 		.4byte	0x0
 761 00b5 00000000 		.4byte	0x0
 762              	.LLST7:
 763 00b9 04010000 		.4byte	.LFB4-.Ltext0
 764 00bd 06010000 		.4byte	.LCFI5-.Ltext0
 765 00c1 0100     		.2byte	0x1
 766 00c3 5D       		.byte	0x5d
 767 00c4 06010000 		.4byte	.LCFI5-.Ltext0
 768 00c8 08010000 		.4byte	.LCFI6-.Ltext0
 769 00cc 0200     		.2byte	0x2
 770 00ce 7D       		.byte	0x7d
 771 00cf 04       		.sleb128 4
 772 00d0 08010000 		.4byte	.LCFI6-.Ltext0
 773 00d4 60010000 		.4byte	.LFE4-.Ltext0
 774 00d8 0200     		.2byte	0x2
 775 00da 7D       		.byte	0x7d
 776 00db 08       		.sleb128 8
ARM GAS  /cygdrive/c/DOCUME~1/witaj/USTAWI~1/Temp/ccXYHwTB.s 			page 20


 777 00dc 00000000 		.4byte	0x0
 778 00e0 00000000 		.4byte	0x0
 779              	.LLST8:
 780 00e4 60010000 		.4byte	.LFB5-.Ltext0
 781 00e8 62010000 		.4byte	.LCFI7-.Ltext0
 782 00ec 0100     		.2byte	0x1
 783 00ee 5D       		.byte	0x5d
 784 00ef 62010000 		.4byte	.LCFI7-.Ltext0
 785 00f3 84020000 		.4byte	.LFE5-.Ltext0
 786 00f7 0200     		.2byte	0x2
 787 00f9 7D       		.byte	0x7d
 788 00fa 0C       		.sleb128 12
 789 00fb 00000000 		.4byte	0x0
 790 00ff 00000000 		.4byte	0x0
 791              	.LLST9:
 792 0103 62010000 		.4byte	.LVL10-.Ltext0
 793 0107 68010000 		.4byte	.LVL13-.Ltext0
 794 010b 0100     		.2byte	0x1
 795 010d 50       		.byte	0x50
 796 010e 6E020000 		.4byte	.LVL26-.Ltext0
 797 0112 84020000 		.4byte	.LFE5-.Ltext0
 798 0116 0100     		.2byte	0x1
 799 0118 50       		.byte	0x50
 800 0119 00000000 		.4byte	0x0
 801 011d 00000000 		.4byte	0x0
 802              	.LLST10:
 803 0121 D8010000 		.4byte	.LVL14-.Ltext0
 804 0125 F2010000 		.4byte	.LVL15-.Ltext0
 805 0129 0100     		.2byte	0x1
 806 012b 50       		.byte	0x50
 807 012c F4010000 		.4byte	.LVL16-.Ltext0
 808 0130 F8010000 		.4byte	.LVL17-.Ltext0
 809 0134 0100     		.2byte	0x1
 810 0136 50       		.byte	0x50
 811 0137 FE010000 		.4byte	.LVL18-.Ltext0
 812 013b 02020000 		.4byte	.LVL19-.Ltext0
 813 013f 0100     		.2byte	0x1
 814 0141 50       		.byte	0x50
 815 0142 04020000 		.4byte	.LVL20-.Ltext0
 816 0146 30020000 		.4byte	.LVL21-.Ltext0
 817 014a 0100     		.2byte	0x1
 818 014c 50       		.byte	0x50
 819 014d 36020000 		.4byte	.LVL22-.Ltext0
 820 0151 62020000 		.4byte	.LVL23-.Ltext0
 821 0155 0100     		.2byte	0x1
 822 0157 50       		.byte	0x50
 823 0158 66020000 		.4byte	.LVL24-.Ltext0
 824 015c 68020000 		.4byte	.LVL25-.Ltext0
 825 0160 0100     		.2byte	0x1
 826 0162 50       		.byte	0x50
 827 0163 00000000 		.4byte	0x0
 828 0167 00000000 		.4byte	0x0
 829              		.section	.debug_info
 830 0000 8B020000 		.4byte	0x28b
 831 0004 0200     		.2byte	0x2
 832 0006 00000000 		.4byte	.Ldebug_abbrev0
 833 000a 04       		.byte	0x4
ARM GAS  /cygdrive/c/DOCUME~1/witaj/USTAWI~1/Temp/ccXYHwTB.s 			page 21


 834 000b 01       		.uleb128 0x1
 835 000c 00000000 		.4byte	.Ldebug_line0
 836 0010 84020000 		.4byte	.Letext0
 837 0014 00000000 		.4byte	.Ltext0
 838 0018 30010000 		.4byte	.LASF26
 839 001c 01       		.byte	0x1
 840 001d E5000000 		.4byte	.LASF27
 841 0021 9C000000 		.4byte	.LASF28
 842 0025 02       		.uleb128 0x2
 843 0026 74553800 		.ascii	"tU8\000"
 844 002a 02       		.byte	0x2
 845 002b 47       		.byte	0x47
 846 002c 30000000 		.4byte	0x30
 847 0030 03       		.uleb128 0x3
 848 0031 22010000 		.4byte	.LASF0
 849 0035 01       		.byte	0x1
 850 0036 08       		.byte	0x8
 851 0037 03       		.uleb128 0x3
 852 0038 77000000 		.4byte	.LASF1
 853 003c 02       		.byte	0x2
 854 003d 07       		.byte	0x7
 855 003e 04       		.uleb128 0x4
 856 003f EC000000 		.4byte	.LASF2
 857 0043 02       		.byte	0x2
 858 0044 49       		.byte	0x49
 859 0045 49000000 		.4byte	0x49
 860 0049 03       		.uleb128 0x3
 861 004a 58000000 		.4byte	.LASF3
 862 004e 04       		.byte	0x4
 863 004f 07       		.byte	0x7
 864 0050 03       		.uleb128 0x3
 865 0051 0C000000 		.4byte	.LASF4
 866 0055 01       		.byte	0x1
 867 0056 06       		.byte	0x6
 868 0057 03       		.uleb128 0x3
 869 0058 3C010000 		.4byte	.LASF5
 870 005c 02       		.byte	0x2
 871 005d 05       		.byte	0x5
 872 005e 05       		.uleb128 0x5
 873 005f 696E7400 		.ascii	"int\000"
 874 0063 04       		.byte	0x4
 875 0064 05       		.byte	0x5
 876 0065 03       		.uleb128 0x3
 877 0066 65000000 		.4byte	.LASF6
 878 006a 04       		.byte	0x4
 879 006b 07       		.byte	0x7
 880 006c 06       		.uleb128 0x6
 881 006d 04       		.byte	0x4
 882 006e 03       		.uleb128 0x3
 883 006f 65000000 		.4byte	.LASF6
 884 0073 04       		.byte	0x4
 885 0074 07       		.byte	0x7
 886 0075 03       		.uleb128 0x3
 887 0076 46000000 		.4byte	.LASF7
 888 007a 04       		.byte	0x4
 889 007b 05       		.byte	0x5
 890 007c 03       		.uleb128 0x3
ARM GAS  /cygdrive/c/DOCUME~1/witaj/USTAWI~1/Temp/ccXYHwTB.s 			page 22


 891 007d 2F000000 		.4byte	.LASF8
 892 0081 08       		.byte	0x8
 893 0082 05       		.byte	0x5
 894 0083 03       		.uleb128 0x3
 895 0084 4F010000 		.4byte	.LASF9
 896 0088 01       		.byte	0x1
 897 0089 08       		.byte	0x8
 898 008a 03       		.uleb128 0x3
 899 008b 18000000 		.4byte	.LASF10
 900 008f 08       		.byte	0x8
 901 0090 07       		.byte	0x7
 902 0091 07       		.uleb128 0x7
 903 0092 B8000000 		.4byte	0xb8
 904 0096 01       		.byte	0x1
 905 0097 64010000 		.4byte	.LASF11
 906 009b 01       		.byte	0x1
 907 009c 2001     		.2byte	0x120
 908 009e 01       		.byte	0x1
 909 009f 00000000 		.4byte	.LFB7
 910 00a3 10000000 		.4byte	.LFE7
 911 00a7 01       		.byte	0x1
 912 00a8 5D       		.byte	0x5d
 913 00a9 08       		.uleb128 0x8
 914 00aa 00000000 		.4byte	.LASF14
 915 00ae 01       		.byte	0x1
 916 00af 1F01     		.2byte	0x11f
 917 00b1 3E000000 		.4byte	0x3e
 918 00b5 01       		.byte	0x1
 919 00b6 50       		.byte	0x50
 920 00b7 00       		.byte	0x0
 921 00b8 09       		.uleb128 0x9
 922 00b9 F2000000 		.4byte	0xf2
 923 00bd 01       		.byte	0x1
 924 00be 6C010000 		.4byte	.LASF12
 925 00c2 01       		.byte	0x1
 926 00c3 48       		.byte	0x48
 927 00c4 01       		.byte	0x1
 928 00c5 5E000000 		.4byte	0x5e
 929 00c9 10000000 		.4byte	.LFB2
 930 00cd 5C000000 		.4byte	.LFE2
 931 00d1 00000000 		.4byte	.LLST1
 932 00d5 0A       		.uleb128 0xa
 933 00d6 0D010000 		.4byte	.LASF13
 934 00da 01       		.byte	0x1
 935 00db 49       		.byte	0x49
 936 00dc 25000000 		.4byte	0x25
 937 00e0 02       		.byte	0x2
 938 00e1 91       		.byte	0x91
 939 00e2 73       		.sleb128 -13
 940 00e3 0B       		.uleb128 0xb
 941 00e4 70696400 		.ascii	"pid\000"
 942 00e8 01       		.byte	0x1
 943 00e9 4A       		.byte	0x4a
 944 00ea 25000000 		.4byte	0x25
 945 00ee 02       		.byte	0x2
 946 00ef 75       		.byte	0x75
 947 00f0 00       		.sleb128 0
ARM GAS  /cygdrive/c/DOCUME~1/witaj/USTAWI~1/Temp/ccXYHwTB.s 			page 23


 948 00f1 00       		.byte	0x0
 949 00f2 0C       		.uleb128 0xc
 950 00f3 2B010000 		.4byte	0x12b
 951 00f7 46010000 		.4byte	.LASF15
 952 00fb 01       		.byte	0x1
 953 00fc 0301     		.2byte	0x103
 954 00fe 01       		.byte	0x1
 955 00ff 5C000000 		.4byte	.LFB6
 956 0103 AC000000 		.4byte	.LFE6
 957 0107 2B000000 		.4byte	.LLST2
 958 010b 0D       		.uleb128 0xd
 959 010c 61726700 		.ascii	"arg\000"
 960 0110 01       		.byte	0x1
 961 0111 0201     		.2byte	0x102
 962 0113 6C000000 		.4byte	0x6c
 963 0117 56000000 		.4byte	.LLST3
 964 011b 0E       		.uleb128 0xe
 965 011c 0D010000 		.4byte	.LASF13
 966 0120 01       		.byte	0x1
 967 0121 0401     		.2byte	0x104
 968 0123 25000000 		.4byte	0x25
 969 0127 02       		.byte	0x2
 970 0128 91       		.byte	0x91
 971 0129 73       		.sleb128 -13
 972 012a 00       		.byte	0x0
 973 012b 0F       		.uleb128 0xf
 974 012c 62010000 		.4byte	0x162
 975 0130 13010000 		.4byte	.LASF16
 976 0134 01       		.byte	0x1
 977 0135 64       		.byte	0x64
 978 0136 01       		.byte	0x1
 979 0137 AC000000 		.4byte	.LFB3
 980 013b 04010000 		.4byte	.LFE3
 981 013f 69000000 		.4byte	.LLST4
 982 0143 10       		.uleb128 0x10
 983 0144 06010000 		.4byte	.LASF17
 984 0148 01       		.byte	0x1
 985 0149 63       		.byte	0x63
 986 014a 25000000 		.4byte	0x25
 987 014e 88000000 		.4byte	.LLST5
 988 0152 11       		.uleb128 0x11
 989 0153 726F7700 		.ascii	"row\000"
 990 0157 01       		.byte	0x1
 991 0158 65       		.byte	0x65
 992 0159 3E000000 		.4byte	0x3e
 993 015d A6000000 		.4byte	.LLST6
 994 0161 00       		.byte	0x0
 995 0162 12       		.uleb128 0x12
 996 0163 5B010000 		.4byte	.LASF29
 997 0167 01       		.byte	0x1
 998 0168 81       		.byte	0x81
 999 0169 01       		.byte	0x1
 1000 016a 04010000 		.4byte	.LFB4
 1001 016e 60010000 		.4byte	.LFE4
 1002 0172 B9000000 		.4byte	.LLST7
 1003 0176 0F       		.uleb128 0xf
 1004 0177 CD010000 		.4byte	0x1cd
ARM GAS  /cygdrive/c/DOCUME~1/witaj/USTAWI~1/Temp/ccXYHwTB.s 			page 24


 1005 017b 71010000 		.4byte	.LASF18
 1006 017f 01       		.byte	0x1
 1007 0180 9C       		.byte	0x9c
 1008 0181 01       		.byte	0x1
 1009 0182 60010000 		.4byte	.LFB5
 1010 0186 84020000 		.4byte	.LFE5
 1011 018a E4000000 		.4byte	.LLST8
 1012 018e 13       		.uleb128 0x13
 1013 018f 61726700 		.ascii	"arg\000"
 1014 0193 01       		.byte	0x1
 1015 0194 9B       		.byte	0x9b
 1016 0195 6C000000 		.4byte	0x6c
 1017 0199 03010000 		.4byte	.LLST9
 1018 019d 0B       		.uleb128 0xb
 1019 019e 6900     		.ascii	"i\000"
 1020 01a0 01       		.byte	0x1
 1021 01a1 9E       		.byte	0x9e
 1022 01a2 25000000 		.4byte	0x25
 1023 01a6 01       		.byte	0x1
 1024 01a7 55       		.byte	0x55
 1025 01a8 0B       		.uleb128 0xb
 1026 01a9 6A00     		.ascii	"j\000"
 1027 01ab 01       		.byte	0x1
 1028 01ac 9E       		.byte	0x9e
 1029 01ad 25000000 		.4byte	0x25
 1030 01b1 01       		.byte	0x1
 1031 01b2 54       		.byte	0x54
 1032 01b3 14       		.uleb128 0x14
 1033 01b4 D4010000 		.4byte	.LBB2
 1034 01b8 84020000 		.4byte	.LBE2
 1035 01bc 15       		.uleb128 0x15
 1036 01bd 54010000 		.4byte	.LASF19
 1037 01c1 01       		.byte	0x1
 1038 01c2 BD       		.byte	0xbd
 1039 01c3 25000000 		.4byte	0x25
 1040 01c7 21010000 		.4byte	.LLST10
 1041 01cb 00       		.byte	0x0
 1042 01cc 00       		.byte	0x0
 1043 01cd 16       		.uleb128 0x16
 1044 01ce DE010000 		.4byte	0x1de
 1045 01d2 25000000 		.4byte	0x25
 1046 01d6 17       		.uleb128 0x17
 1047 01d7 65000000 		.4byte	0x65
 1048 01db 1F03     		.2byte	0x31f
 1049 01dd 00       		.byte	0x0
 1050 01de 0A       		.uleb128 0xa
 1051 01df FB000000 		.4byte	.LASF20
 1052 01e3 01       		.byte	0x1
 1053 01e4 2E       		.byte	0x2e
 1054 01e5 CD010000 		.4byte	0x1cd
 1055 01e9 05       		.byte	0x5
 1056 01ea 03       		.byte	0x3
 1057 01eb 01000000 		.4byte	proc1Stack
 1058 01ef 16       		.uleb128 0x16
 1059 01f0 00020000 		.4byte	0x200
 1060 01f4 25000000 		.4byte	0x25
 1061 01f8 17       		.uleb128 0x17
ARM GAS  /cygdrive/c/DOCUME~1/witaj/USTAWI~1/Temp/ccXYHwTB.s 			page 25


 1062 01f9 65000000 		.4byte	0x65
 1063 01fd 5702     		.2byte	0x257
 1064 01ff 00       		.byte	0x0
 1065 0200 0A       		.uleb128 0xa
 1066 0201 F1000000 		.4byte	.LASF21
 1067 0205 01       		.byte	0x1
 1068 0206 2F       		.byte	0x2f
 1069 0207 EF010000 		.4byte	0x1ef
 1070 020b 05       		.byte	0x5
 1071 020c 03       		.byte	0x3
 1072 020d 21030000 		.4byte	initStack
 1073 0211 0A       		.uleb128 0xa
 1074 0212 97000000 		.4byte	.LASF22
 1075 0216 01       		.byte	0x1
 1076 0217 30       		.byte	0x30
 1077 0218 25000000 		.4byte	0x25
 1078 021c 05       		.byte	0x5
 1079 021d 03       		.byte	0x3
 1080 021e 79050000 		.4byte	pid1
 1081 0222 0A       		.uleb128 0xa
 1082 0223 3D000000 		.4byte	.LASF23
 1083 0227 01       		.byte	0x1
 1084 0228 32       		.byte	0x32
 1085 0229 25000000 		.4byte	0x25
 1086 022d 05       		.byte	0x5
 1087 022e 03       		.byte	0x3
 1088 022f 24000000 		.4byte	contrast
 1089 0233 0A       		.uleb128 0xa
 1090 0234 06010000 		.4byte	.LASF17
 1091 0238 01       		.byte	0x1
 1092 0239 33       		.byte	0x33
 1093 023a 25000000 		.4byte	0x25
 1094 023e 05       		.byte	0x5
 1095 023f 03       		.byte	0x3
 1096 0240 00000000 		.4byte	cursor
 1097 0244 18       		.uleb128 0x18
 1098 0245 6D7300   		.ascii	"ms\000"
 1099 0248 01       		.byte	0x1
 1100 0249 28       		.byte	0x28
 1101 024a 55020000 		.4byte	0x255
 1102 024e 01       		.byte	0x1
 1103 024f 05       		.byte	0x5
 1104 0250 03       		.byte	0x3
 1105 0251 00000000 		.4byte	ms
 1106 0255 19       		.uleb128 0x19
 1107 0256 3E000000 		.4byte	0x3e
 1108 025a 16       		.uleb128 0x16
 1109 025b 6A020000 		.4byte	0x26a
 1110 025f 25000000 		.4byte	0x25
 1111 0263 1A       		.uleb128 0x1a
 1112 0264 65000000 		.4byte	0x65
 1113 0268 1D       		.byte	0x1d
 1114 0269 00       		.byte	0x0
 1115 026a 1B       		.uleb128 0x1b
 1116 026b 4F000000 		.4byte	.LASF24
 1117 026f 01       		.byte	0x1
 1118 0270 35       		.byte	0x35
ARM GAS  /cygdrive/c/DOCUME~1/witaj/USTAWI~1/Temp/ccXYHwTB.s 			page 26


 1119 0271 5A020000 		.4byte	0x25a
 1120 0275 01       		.byte	0x1
 1121 0276 05       		.byte	0x5
 1122 0277 03       		.byte	0x3
 1123 0278 00000000 		.4byte	memblock
 1124 027c 1B       		.uleb128 0x1b
 1125 027d 8A000000 		.4byte	.LASF25
 1126 0281 01       		.byte	0x1
 1127 0282 36       		.byte	0x36
 1128 0283 5E000000 		.4byte	0x5e
 1129 0287 01       		.byte	0x1
 1130 0288 05       		.byte	0x5
 1131 0289 03       		.byte	0x3
 1132 028a 00000000 		.4byte	memblockSize
 1133 028e 00       		.byte	0x0
 1134              		.section	.debug_abbrev
 1135 0000 01       		.uleb128 0x1
 1136 0001 11       		.uleb128 0x11
 1137 0002 01       		.byte	0x1
 1138 0003 10       		.uleb128 0x10
 1139 0004 06       		.uleb128 0x6
 1140 0005 12       		.uleb128 0x12
 1141 0006 01       		.uleb128 0x1
 1142 0007 11       		.uleb128 0x11
 1143 0008 01       		.uleb128 0x1
 1144 0009 25       		.uleb128 0x25
 1145 000a 0E       		.uleb128 0xe
 1146 000b 13       		.uleb128 0x13
 1147 000c 0B       		.uleb128 0xb
 1148 000d 03       		.uleb128 0x3
 1149 000e 0E       		.uleb128 0xe
 1150 000f 1B       		.uleb128 0x1b
 1151 0010 0E       		.uleb128 0xe
 1152 0011 00       		.byte	0x0
 1153 0012 00       		.byte	0x0
 1154 0013 02       		.uleb128 0x2
 1155 0014 16       		.uleb128 0x16
 1156 0015 00       		.byte	0x0
 1157 0016 03       		.uleb128 0x3
 1158 0017 08       		.uleb128 0x8
 1159 0018 3A       		.uleb128 0x3a
 1160 0019 0B       		.uleb128 0xb
 1161 001a 3B       		.uleb128 0x3b
 1162 001b 0B       		.uleb128 0xb
 1163 001c 49       		.uleb128 0x49
 1164 001d 13       		.uleb128 0x13
 1165 001e 00       		.byte	0x0
 1166 001f 00       		.byte	0x0
 1167 0020 03       		.uleb128 0x3
 1168 0021 24       		.uleb128 0x24
 1169 0022 00       		.byte	0x0
 1170 0023 03       		.uleb128 0x3
 1171 0024 0E       		.uleb128 0xe
 1172 0025 0B       		.uleb128 0xb
 1173 0026 0B       		.uleb128 0xb
 1174 0027 3E       		.uleb128 0x3e
 1175 0028 0B       		.uleb128 0xb
ARM GAS  /cygdrive/c/DOCUME~1/witaj/USTAWI~1/Temp/ccXYHwTB.s 			page 27


 1176 0029 00       		.byte	0x0
 1177 002a 00       		.byte	0x0
 1178 002b 04       		.uleb128 0x4
 1179 002c 16       		.uleb128 0x16
 1180 002d 00       		.byte	0x0
 1181 002e 03       		.uleb128 0x3
 1182 002f 0E       		.uleb128 0xe
 1183 0030 3A       		.uleb128 0x3a
 1184 0031 0B       		.uleb128 0xb
 1185 0032 3B       		.uleb128 0x3b
 1186 0033 0B       		.uleb128 0xb
 1187 0034 49       		.uleb128 0x49
 1188 0035 13       		.uleb128 0x13
 1189 0036 00       		.byte	0x0
 1190 0037 00       		.byte	0x0
 1191 0038 05       		.uleb128 0x5
 1192 0039 24       		.uleb128 0x24
 1193 003a 00       		.byte	0x0
 1194 003b 03       		.uleb128 0x3
 1195 003c 08       		.uleb128 0x8
 1196 003d 0B       		.uleb128 0xb
 1197 003e 0B       		.uleb128 0xb
 1198 003f 3E       		.uleb128 0x3e
 1199 0040 0B       		.uleb128 0xb
 1200 0041 00       		.byte	0x0
 1201 0042 00       		.byte	0x0
 1202 0043 06       		.uleb128 0x6
 1203 0044 0F       		.uleb128 0xf
 1204 0045 00       		.byte	0x0
 1205 0046 0B       		.uleb128 0xb
 1206 0047 0B       		.uleb128 0xb
 1207 0048 00       		.byte	0x0
 1208 0049 00       		.byte	0x0
 1209 004a 07       		.uleb128 0x7
 1210 004b 2E       		.uleb128 0x2e
 1211 004c 01       		.byte	0x1
 1212 004d 01       		.uleb128 0x1
 1213 004e 13       		.uleb128 0x13
 1214 004f 3F       		.uleb128 0x3f
 1215 0050 0C       		.uleb128 0xc
 1216 0051 03       		.uleb128 0x3
 1217 0052 0E       		.uleb128 0xe
 1218 0053 3A       		.uleb128 0x3a
 1219 0054 0B       		.uleb128 0xb
 1220 0055 3B       		.uleb128 0x3b
 1221 0056 05       		.uleb128 0x5
 1222 0057 27       		.uleb128 0x27
 1223 0058 0C       		.uleb128 0xc
 1224 0059 11       		.uleb128 0x11
 1225 005a 01       		.uleb128 0x1
 1226 005b 12       		.uleb128 0x12
 1227 005c 01       		.uleb128 0x1
 1228 005d 40       		.uleb128 0x40
 1229 005e 0A       		.uleb128 0xa
 1230 005f 00       		.byte	0x0
 1231 0060 00       		.byte	0x0
 1232 0061 08       		.uleb128 0x8
ARM GAS  /cygdrive/c/DOCUME~1/witaj/USTAWI~1/Temp/ccXYHwTB.s 			page 28


 1233 0062 05       		.uleb128 0x5
 1234 0063 00       		.byte	0x0
 1235 0064 03       		.uleb128 0x3
 1236 0065 0E       		.uleb128 0xe
 1237 0066 3A       		.uleb128 0x3a
 1238 0067 0B       		.uleb128 0xb
 1239 0068 3B       		.uleb128 0x3b
 1240 0069 05       		.uleb128 0x5
 1241 006a 49       		.uleb128 0x49
 1242 006b 13       		.uleb128 0x13
 1243 006c 02       		.uleb128 0x2
 1244 006d 0A       		.uleb128 0xa
 1245 006e 00       		.byte	0x0
 1246 006f 00       		.byte	0x0
 1247 0070 09       		.uleb128 0x9
 1248 0071 2E       		.uleb128 0x2e
 1249 0072 01       		.byte	0x1
 1250 0073 01       		.uleb128 0x1
 1251 0074 13       		.uleb128 0x13
 1252 0075 3F       		.uleb128 0x3f
 1253 0076 0C       		.uleb128 0xc
 1254 0077 03       		.uleb128 0x3
 1255 0078 0E       		.uleb128 0xe
 1256 0079 3A       		.uleb128 0x3a
 1257 007a 0B       		.uleb128 0xb
 1258 007b 3B       		.uleb128 0x3b
 1259 007c 0B       		.uleb128 0xb
 1260 007d 27       		.uleb128 0x27
 1261 007e 0C       		.uleb128 0xc
 1262 007f 49       		.uleb128 0x49
 1263 0080 13       		.uleb128 0x13
 1264 0081 11       		.uleb128 0x11
 1265 0082 01       		.uleb128 0x1
 1266 0083 12       		.uleb128 0x12
 1267 0084 01       		.uleb128 0x1
 1268 0085 40       		.uleb128 0x40
 1269 0086 06       		.uleb128 0x6
 1270 0087 00       		.byte	0x0
 1271 0088 00       		.byte	0x0
 1272 0089 0A       		.uleb128 0xa
 1273 008a 34       		.uleb128 0x34
 1274 008b 00       		.byte	0x0
 1275 008c 03       		.uleb128 0x3
 1276 008d 0E       		.uleb128 0xe
 1277 008e 3A       		.uleb128 0x3a
 1278 008f 0B       		.uleb128 0xb
 1279 0090 3B       		.uleb128 0x3b
 1280 0091 0B       		.uleb128 0xb
 1281 0092 49       		.uleb128 0x49
 1282 0093 13       		.uleb128 0x13
 1283 0094 02       		.uleb128 0x2
 1284 0095 0A       		.uleb128 0xa
 1285 0096 00       		.byte	0x0
 1286 0097 00       		.byte	0x0
 1287 0098 0B       		.uleb128 0xb
 1288 0099 34       		.uleb128 0x34
 1289 009a 00       		.byte	0x0
ARM GAS  /cygdrive/c/DOCUME~1/witaj/USTAWI~1/Temp/ccXYHwTB.s 			page 29


 1290 009b 03       		.uleb128 0x3
 1291 009c 08       		.uleb128 0x8
 1292 009d 3A       		.uleb128 0x3a
 1293 009e 0B       		.uleb128 0xb
 1294 009f 3B       		.uleb128 0x3b
 1295 00a0 0B       		.uleb128 0xb
 1296 00a1 49       		.uleb128 0x49
 1297 00a2 13       		.uleb128 0x13
 1298 00a3 02       		.uleb128 0x2
 1299 00a4 0A       		.uleb128 0xa
 1300 00a5 00       		.byte	0x0
 1301 00a6 00       		.byte	0x0
 1302 00a7 0C       		.uleb128 0xc
 1303 00a8 2E       		.uleb128 0x2e
 1304 00a9 01       		.byte	0x1
 1305 00aa 01       		.uleb128 0x1
 1306 00ab 13       		.uleb128 0x13
 1307 00ac 03       		.uleb128 0x3
 1308 00ad 0E       		.uleb128 0xe
 1309 00ae 3A       		.uleb128 0x3a
 1310 00af 0B       		.uleb128 0xb
 1311 00b0 3B       		.uleb128 0x3b
 1312 00b1 05       		.uleb128 0x5
 1313 00b2 27       		.uleb128 0x27
 1314 00b3 0C       		.uleb128 0xc
 1315 00b4 11       		.uleb128 0x11
 1316 00b5 01       		.uleb128 0x1
 1317 00b6 12       		.uleb128 0x12
 1318 00b7 01       		.uleb128 0x1
 1319 00b8 40       		.uleb128 0x40
 1320 00b9 06       		.uleb128 0x6
 1321 00ba 00       		.byte	0x0
 1322 00bb 00       		.byte	0x0
 1323 00bc 0D       		.uleb128 0xd
 1324 00bd 05       		.uleb128 0x5
 1325 00be 00       		.byte	0x0
 1326 00bf 03       		.uleb128 0x3
 1327 00c0 08       		.uleb128 0x8
 1328 00c1 3A       		.uleb128 0x3a
 1329 00c2 0B       		.uleb128 0xb
 1330 00c3 3B       		.uleb128 0x3b
 1331 00c4 05       		.uleb128 0x5
 1332 00c5 49       		.uleb128 0x49
 1333 00c6 13       		.uleb128 0x13
 1334 00c7 02       		.uleb128 0x2
 1335 00c8 06       		.uleb128 0x6
 1336 00c9 00       		.byte	0x0
 1337 00ca 00       		.byte	0x0
 1338 00cb 0E       		.uleb128 0xe
 1339 00cc 34       		.uleb128 0x34
 1340 00cd 00       		.byte	0x0
 1341 00ce 03       		.uleb128 0x3
 1342 00cf 0E       		.uleb128 0xe
 1343 00d0 3A       		.uleb128 0x3a
 1344 00d1 0B       		.uleb128 0xb
 1345 00d2 3B       		.uleb128 0x3b
 1346 00d3 05       		.uleb128 0x5
ARM GAS  /cygdrive/c/DOCUME~1/witaj/USTAWI~1/Temp/ccXYHwTB.s 			page 30


 1347 00d4 49       		.uleb128 0x49
 1348 00d5 13       		.uleb128 0x13
 1349 00d6 02       		.uleb128 0x2
 1350 00d7 0A       		.uleb128 0xa
 1351 00d8 00       		.byte	0x0
 1352 00d9 00       		.byte	0x0
 1353 00da 0F       		.uleb128 0xf
 1354 00db 2E       		.uleb128 0x2e
 1355 00dc 01       		.byte	0x1
 1356 00dd 01       		.uleb128 0x1
 1357 00de 13       		.uleb128 0x13
 1358 00df 03       		.uleb128 0x3
 1359 00e0 0E       		.uleb128 0xe
 1360 00e1 3A       		.uleb128 0x3a
 1361 00e2 0B       		.uleb128 0xb
 1362 00e3 3B       		.uleb128 0x3b
 1363 00e4 0B       		.uleb128 0xb
 1364 00e5 27       		.uleb128 0x27
 1365 00e6 0C       		.uleb128 0xc
 1366 00e7 11       		.uleb128 0x11
 1367 00e8 01       		.uleb128 0x1
 1368 00e9 12       		.uleb128 0x12
 1369 00ea 01       		.uleb128 0x1
 1370 00eb 40       		.uleb128 0x40
 1371 00ec 06       		.uleb128 0x6
 1372 00ed 00       		.byte	0x0
 1373 00ee 00       		.byte	0x0
 1374 00ef 10       		.uleb128 0x10
 1375 00f0 05       		.uleb128 0x5
 1376 00f1 00       		.byte	0x0
 1377 00f2 03       		.uleb128 0x3
 1378 00f3 0E       		.uleb128 0xe
 1379 00f4 3A       		.uleb128 0x3a
 1380 00f5 0B       		.uleb128 0xb
 1381 00f6 3B       		.uleb128 0x3b
 1382 00f7 0B       		.uleb128 0xb
 1383 00f8 49       		.uleb128 0x49
 1384 00f9 13       		.uleb128 0x13
 1385 00fa 02       		.uleb128 0x2
 1386 00fb 06       		.uleb128 0x6
 1387 00fc 00       		.byte	0x0
 1388 00fd 00       		.byte	0x0
 1389 00fe 11       		.uleb128 0x11
 1390 00ff 34       		.uleb128 0x34
 1391 0100 00       		.byte	0x0
 1392 0101 03       		.uleb128 0x3
 1393 0102 08       		.uleb128 0x8
 1394 0103 3A       		.uleb128 0x3a
 1395 0104 0B       		.uleb128 0xb
 1396 0105 3B       		.uleb128 0x3b
 1397 0106 0B       		.uleb128 0xb
 1398 0107 49       		.uleb128 0x49
 1399 0108 13       		.uleb128 0x13
 1400 0109 02       		.uleb128 0x2
 1401 010a 06       		.uleb128 0x6
 1402 010b 00       		.byte	0x0
 1403 010c 00       		.byte	0x0
ARM GAS  /cygdrive/c/DOCUME~1/witaj/USTAWI~1/Temp/ccXYHwTB.s 			page 31


 1404 010d 12       		.uleb128 0x12
 1405 010e 2E       		.uleb128 0x2e
 1406 010f 00       		.byte	0x0
 1407 0110 03       		.uleb128 0x3
 1408 0111 0E       		.uleb128 0xe
 1409 0112 3A       		.uleb128 0x3a
 1410 0113 0B       		.uleb128 0xb
 1411 0114 3B       		.uleb128 0x3b
 1412 0115 0B       		.uleb128 0xb
 1413 0116 27       		.uleb128 0x27
 1414 0117 0C       		.uleb128 0xc
 1415 0118 11       		.uleb128 0x11
 1416 0119 01       		.uleb128 0x1
 1417 011a 12       		.uleb128 0x12
 1418 011b 01       		.uleb128 0x1
 1419 011c 40       		.uleb128 0x40
 1420 011d 06       		.uleb128 0x6
 1421 011e 00       		.byte	0x0
 1422 011f 00       		.byte	0x0
 1423 0120 13       		.uleb128 0x13
 1424 0121 05       		.uleb128 0x5
 1425 0122 00       		.byte	0x0
 1426 0123 03       		.uleb128 0x3
 1427 0124 08       		.uleb128 0x8
 1428 0125 3A       		.uleb128 0x3a
 1429 0126 0B       		.uleb128 0xb
 1430 0127 3B       		.uleb128 0x3b
 1431 0128 0B       		.uleb128 0xb
 1432 0129 49       		.uleb128 0x49
 1433 012a 13       		.uleb128 0x13
 1434 012b 02       		.uleb128 0x2
 1435 012c 06       		.uleb128 0x6
 1436 012d 00       		.byte	0x0
 1437 012e 00       		.byte	0x0
 1438 012f 14       		.uleb128 0x14
 1439 0130 0B       		.uleb128 0xb
 1440 0131 01       		.byte	0x1
 1441 0132 11       		.uleb128 0x11
 1442 0133 01       		.uleb128 0x1
 1443 0134 12       		.uleb128 0x12
 1444 0135 01       		.uleb128 0x1
 1445 0136 00       		.byte	0x0
 1446 0137 00       		.byte	0x0
 1447 0138 15       		.uleb128 0x15
 1448 0139 34       		.uleb128 0x34
 1449 013a 00       		.byte	0x0
 1450 013b 03       		.uleb128 0x3
 1451 013c 0E       		.uleb128 0xe
 1452 013d 3A       		.uleb128 0x3a
 1453 013e 0B       		.uleb128 0xb
 1454 013f 3B       		.uleb128 0x3b
 1455 0140 0B       		.uleb128 0xb
 1456 0141 49       		.uleb128 0x49
 1457 0142 13       		.uleb128 0x13
 1458 0143 02       		.uleb128 0x2
 1459 0144 06       		.uleb128 0x6
 1460 0145 00       		.byte	0x0
ARM GAS  /cygdrive/c/DOCUME~1/witaj/USTAWI~1/Temp/ccXYHwTB.s 			page 32


 1461 0146 00       		.byte	0x0
 1462 0147 16       		.uleb128 0x16
 1463 0148 01       		.uleb128 0x1
 1464 0149 01       		.byte	0x1
 1465 014a 01       		.uleb128 0x1
 1466 014b 13       		.uleb128 0x13
 1467 014c 49       		.uleb128 0x49
 1468 014d 13       		.uleb128 0x13
 1469 014e 00       		.byte	0x0
 1470 014f 00       		.byte	0x0
 1471 0150 17       		.uleb128 0x17
 1472 0151 21       		.uleb128 0x21
 1473 0152 00       		.byte	0x0
 1474 0153 49       		.uleb128 0x49
 1475 0154 13       		.uleb128 0x13
 1476 0155 2F       		.uleb128 0x2f
 1477 0156 05       		.uleb128 0x5
 1478 0157 00       		.byte	0x0
 1479 0158 00       		.byte	0x0
 1480 0159 18       		.uleb128 0x18
 1481 015a 34       		.uleb128 0x34
 1482 015b 00       		.byte	0x0
 1483 015c 03       		.uleb128 0x3
 1484 015d 08       		.uleb128 0x8
 1485 015e 3A       		.uleb128 0x3a
 1486 015f 0B       		.uleb128 0xb
 1487 0160 3B       		.uleb128 0x3b
 1488 0161 0B       		.uleb128 0xb
 1489 0162 49       		.uleb128 0x49
 1490 0163 13       		.uleb128 0x13
 1491 0164 3F       		.uleb128 0x3f
 1492 0165 0C       		.uleb128 0xc
 1493 0166 02       		.uleb128 0x2
 1494 0167 0A       		.uleb128 0xa
 1495 0168 00       		.byte	0x0
 1496 0169 00       		.byte	0x0
 1497 016a 19       		.uleb128 0x19
 1498 016b 35       		.uleb128 0x35
 1499 016c 00       		.byte	0x0
 1500 016d 49       		.uleb128 0x49
 1501 016e 13       		.uleb128 0x13
 1502 016f 00       		.byte	0x0
 1503 0170 00       		.byte	0x0
 1504 0171 1A       		.uleb128 0x1a
 1505 0172 21       		.uleb128 0x21
 1506 0173 00       		.byte	0x0
 1507 0174 49       		.uleb128 0x49
 1508 0175 13       		.uleb128 0x13
 1509 0176 2F       		.uleb128 0x2f
 1510 0177 0B       		.uleb128 0xb
 1511 0178 00       		.byte	0x0
 1512 0179 00       		.byte	0x0
 1513 017a 1B       		.uleb128 0x1b
 1514 017b 34       		.uleb128 0x34
 1515 017c 00       		.byte	0x0
 1516 017d 03       		.uleb128 0x3
 1517 017e 0E       		.uleb128 0xe
ARM GAS  /cygdrive/c/DOCUME~1/witaj/USTAWI~1/Temp/ccXYHwTB.s 			page 33


 1518 017f 3A       		.uleb128 0x3a
 1519 0180 0B       		.uleb128 0xb
 1520 0181 3B       		.uleb128 0x3b
 1521 0182 0B       		.uleb128 0xb
 1522 0183 49       		.uleb128 0x49
 1523 0184 13       		.uleb128 0x13
 1524 0185 3F       		.uleb128 0x3f
 1525 0186 0C       		.uleb128 0xc
 1526 0187 02       		.uleb128 0x2
 1527 0188 0A       		.uleb128 0xa
 1528 0189 00       		.byte	0x0
 1529 018a 00       		.byte	0x0
 1530 018b 00       		.byte	0x0
 1531              		.section	.debug_pubnames,"",%progbits
 1532 0000 48000000 		.4byte	0x48
 1533 0004 0200     		.2byte	0x2
 1534 0006 00000000 		.4byte	.Ldebug_info0
 1535 000a 8F020000 		.4byte	0x28f
 1536 000e 91000000 		.4byte	0x91
 1537 0012 61707054 		.ascii	"appTick\000"
 1537      69636B00 
 1538 001a B8000000 		.4byte	0xb8
 1539 001e 6D61696E 		.ascii	"main\000"
 1539      00
 1540 0023 44020000 		.4byte	0x244
 1541 0027 6D7300   		.ascii	"ms\000"
 1542 002a 6A020000 		.4byte	0x26a
 1543 002e 6D656D62 		.ascii	"memblock\000"
 1543      6C6F636B 
 1543      00
 1544 0037 7C020000 		.4byte	0x27c
 1545 003b 6D656D62 		.ascii	"memblockSize\000"
 1545      6C6F636B 
 1545      53697A65 
 1545      00
 1546 0048 00000000 		.4byte	0x0
 1547              		.section	.debug_aranges,"",%progbits
 1548 0000 1C000000 		.4byte	0x1c
 1549 0004 0200     		.2byte	0x2
 1550 0006 00000000 		.4byte	.Ldebug_info0
 1551 000a 04       		.byte	0x4
 1552 000b 00       		.byte	0x0
 1553 000c 0000     		.2byte	0x0
 1554 000e 0000     		.2byte	0x0
 1555 0010 00000000 		.4byte	.Ltext0
 1556 0014 84020000 		.4byte	.Letext0-.Ltext0
 1557 0018 00000000 		.4byte	0x0
 1558 001c 00000000 		.4byte	0x0
 1559              		.section	.debug_str,"MS",%progbits,1
 1560              	.LASF14:
 1561 0000 656C6170 		.ascii	"elapsedTime\000"
 1561      73656454 
 1561      696D6500 
 1562              	.LASF4:
 1563 000c 7369676E 		.ascii	"signed char\000"
 1563      65642063 
 1563      68617200 
ARM GAS  /cygdrive/c/DOCUME~1/witaj/USTAWI~1/Temp/ccXYHwTB.s 			page 34


 1564              	.LASF10:
 1565 0018 6C6F6E67 		.ascii	"long long unsigned int\000"
 1565      206C6F6E 
 1565      6720756E 
 1565      7369676E 
 1565      65642069 
 1566              	.LASF8:
 1567 002f 6C6F6E67 		.ascii	"long long int\000"
 1567      206C6F6E 
 1567      6720696E 
 1567      7400
 1568              	.LASF23:
 1569 003d 636F6E74 		.ascii	"contrast\000"
 1569      72617374 
 1569      00
 1570              	.LASF7:
 1571 0046 6C6F6E67 		.ascii	"long int\000"
 1571      20696E74 
 1571      00
 1572              	.LASF24:
 1573 004f 6D656D62 		.ascii	"memblock\000"
 1573      6C6F636B 
 1573      00
 1574              	.LASF3:
 1575 0058 756E7369 		.ascii	"unsigned int\000"
 1575      676E6564 
 1575      20696E74 
 1575      00
 1576              	.LASF6:
 1577 0065 6C6F6E67 		.ascii	"long unsigned int\000"
 1577      20756E73 
 1577      69676E65 
 1577      6420696E 
 1577      7400
 1578              	.LASF1:
 1579 0077 73686F72 		.ascii	"short unsigned int\000"
 1579      7420756E 
 1579      7369676E 
 1579      65642069 
 1579      6E7400
 1580              	.LASF25:
 1581 008a 6D656D62 		.ascii	"memblockSize\000"
 1581      6C6F636B 
 1581      53697A65 
 1581      00
 1582              	.LASF22:
 1583 0097 70696431 		.ascii	"pid1\000"
 1583      00
 1584              	.LASF28:
 1585 009c 2F637967 		.ascii	"/cygdrive/c/Documents and Settings/witaj/Moje dokum"
 1585      64726976 
 1585      652F632F 
 1585      446F6375 
 1585      6D656E74 
 1586 00cf 656E7479 		.ascii	"enty/GitHub/Snake/src\000"
 1586      2F476974 
 1586      4875622F 
ARM GAS  /cygdrive/c/DOCUME~1/witaj/USTAWI~1/Temp/ccXYHwTB.s 			page 35


 1586      536E616B 
 1586      652F7372 
 1587              	.LASF27:
 1588 00e5 6D61696E 		.ascii	"main.c\000"
 1588      2E6300
 1589              	.LASF2:
 1590 00ec 74553332 		.ascii	"tU32\000"
 1590      00
 1591              	.LASF21:
 1592 00f1 696E6974 		.ascii	"initStack\000"
 1592      53746163 
 1592      6B00
 1593              	.LASF20:
 1594 00fb 70726F63 		.ascii	"proc1Stack\000"
 1594      31537461 
 1594      636B00
 1595              	.LASF17:
 1596 0106 63757273 		.ascii	"cursor\000"
 1596      6F7200
 1597              	.LASF13:
 1598 010d 6572726F 		.ascii	"error\000"
 1598      7200
 1599              	.LASF16:
 1600 0113 64726177 		.ascii	"drawMenuCursor\000"
 1600      4D656E75 
 1600      43757273 
 1600      6F7200
 1601              	.LASF0:
 1602 0122 756E7369 		.ascii	"unsigned char\000"
 1602      676E6564 
 1602      20636861 
 1602      7200
 1603              	.LASF26:
 1604 0130 474E5520 		.ascii	"GNU C 4.1.1\000"
 1604      4320342E 
 1604      312E3100 
 1605              	.LASF5:
 1606 013c 73686F72 		.ascii	"short int\000"
 1606      7420696E 
 1606      7400
 1607              	.LASF15:
 1608 0146 696E6974 		.ascii	"initProc\000"
 1608      50726F63 
 1608      00
 1609              	.LASF9:
 1610 014f 63686172 		.ascii	"char\000"
 1610      00
 1611              	.LASF19:
 1612 0154 616E794B 		.ascii	"anyKey\000"
 1612      657900
 1613              	.LASF29:
 1614 015b 64726177 		.ascii	"drawMenu\000"
 1614      4D656E75 
 1614      00
 1615              	.LASF11:
 1616 0164 61707054 		.ascii	"appTick\000"
 1616      69636B00 
ARM GAS  /cygdrive/c/DOCUME~1/witaj/USTAWI~1/Temp/ccXYHwTB.s 			page 36


 1617              	.LASF12:
 1618 016c 6D61696E 		.ascii	"main\000"
 1618      00
 1619              	.LASF18:
 1620 0171 70726F63 		.ascii	"proc1\000"
 1620      3100
 1621              		.ident	"GCC: (GNU) 4.1.1"
ARM GAS  /cygdrive/c/DOCUME~1/witaj/USTAWI~1/Temp/ccXYHwTB.s 			page 37


DEFINED SYMBOLS
                            *ABS*:00000000 main.c
/cygdrive/c/DOCUME~1/witaj/USTAWI~1/Temp/ccXYHwTB.s:1      .text:00000000 $t
/cygdrive/c/DOCUME~1/witaj/USTAWI~1/Temp/ccXYHwTB.s:16     .text:00000000 appTick
/cygdrive/c/DOCUME~1/witaj/USTAWI~1/Temp/ccXYHwTB.s:35     .text:0000000c $d
                            *COM*:00000004 ms
/cygdrive/c/DOCUME~1/witaj/USTAWI~1/Temp/ccXYHwTB.s:43     .text:00000010 main
/cygdrive/c/DOCUME~1/witaj/USTAWI~1/Temp/ccXYHwTB.s:40     .text:00000010 $t
/cygdrive/c/DOCUME~1/witaj/USTAWI~1/Temp/ccXYHwTB.s:88     .text:00000054 $d
/cygdrive/c/DOCUME~1/witaj/USTAWI~1/Temp/ccXYHwTB.s:96     .text:0000005c initProc
/cygdrive/c/DOCUME~1/witaj/USTAWI~1/Temp/ccXYHwTB.s:558    .bss:00000321 initStack
/cygdrive/c/DOCUME~1/witaj/USTAWI~1/Temp/ccXYHwTB.s:93     .text:0000005c $t
/cygdrive/c/DOCUME~1/witaj/USTAWI~1/Temp/ccXYHwTB.s:141    .text:000000a0 $d
/cygdrive/c/DOCUME~1/witaj/USTAWI~1/Temp/ccXYHwTB.s:560    .bss:00000579 pid1
/cygdrive/c/DOCUME~1/witaj/USTAWI~1/Temp/ccXYHwTB.s:298    .text:00000160 proc1
/cygdrive/c/DOCUME~1/witaj/USTAWI~1/Temp/ccXYHwTB.s:556    .bss:00000001 proc1Stack
/cygdrive/c/DOCUME~1/witaj/USTAWI~1/Temp/ccXYHwTB.s:155    .text:000000ac $t
/cygdrive/c/DOCUME~1/witaj/USTAWI~1/Temp/ccXYHwTB.s:158    .text:000000ac drawMenuCursor
/cygdrive/c/DOCUME~1/witaj/USTAWI~1/Temp/ccXYHwTB.s:225    .text:000000fc $d
/cygdrive/c/DOCUME~1/witaj/USTAWI~1/Temp/ccXYHwTB.s:235    .text:00000104 $t
/cygdrive/c/DOCUME~1/witaj/USTAWI~1/Temp/ccXYHwTB.s:238    .text:00000104 drawMenu
/cygdrive/c/DOCUME~1/witaj/USTAWI~1/Temp/ccXYHwTB.s:290    .text:00000158 $d
/cygdrive/c/DOCUME~1/witaj/USTAWI~1/Temp/ccXYHwTB.s:548    .bss:00000000 cursor
/cygdrive/c/DOCUME~1/witaj/USTAWI~1/Temp/ccXYHwTB.s:295    .text:00000160 $t
/cygdrive/c/DOCUME~1/witaj/USTAWI~1/Temp/ccXYHwTB.s:499    .text:00000274 $d
/cygdrive/c/DOCUME~1/witaj/USTAWI~1/Temp/ccXYHwTB.s:545    .data:00000020 memblockSize
/cygdrive/c/DOCUME~1/witaj/USTAWI~1/Temp/ccXYHwTB.s:510    .data:00000000 memblock
/cygdrive/c/DOCUME~1/witaj/USTAWI~1/Temp/ccXYHwTB.s:553    .data:00000024 contrast
/cygdrive/c/DOCUME~1/witaj/USTAWI~1/Temp/ccXYHwTB.s:546    .data:00000020 $d

UNDEFINED SYMBOLS
osInit
immediateIoInit
osCreateProcess
osStartProcess
osStart
eaInit
initBtProc
initKeyProc
osDeleteProcess
lcdGotoxy
lcdColor
lcdPuts
lcdClrscr
lcdRect
setBuzzer
setLED
osSleep
resetLCD
lcdInit
checkKey
playSnake
sendScore
lcdContrast
