ARM GAS  /cygdrive/c/DOCUME~1/witaj/USTAWI~1/Temp/ccGe29Ta.s 			page 1


   1              		.code	16
   2              		.file	"snake.c"
   3              		.section	.debug_abbrev,"",%progbits
   4              	.Ldebug_abbrev0:
   5              		.section	.debug_info,"",%progbits
   6              	.Ldebug_info0:
   7              		.section	.debug_line,"",%progbits
   8              	.Ldebug_line0:
   9 0000 A1010000 		.text
   9      02005200 
   9      00000201 
   9      FB0E0D00 
   9      01010101 
  10              	.Ltext0:
  11              		.global	__divsi3
  12              		.align	2
  13              		.code 16
  14              		.thumb_func
  15              		.type	initTimer1, %function
  16              	initTimer1:
  17              	.LFB5:
  18              		.file 1 "snake.c"
   1:snake.c       **** /******************************************************************************
   2:snake.c       ****  *
   3:snake.c       ****  * Copyright:
   4:snake.c       ****  *    (C) 2006 Embedded Artists AB
   5:snake.c       ****  *
   6:snake.c       ****  * File:
   7:snake.c       ****  *    exampleGame.c
   8:snake.c       ****  *
   9:snake.c       ****  * Description:
  10:snake.c       ****  *    Implementation of example game.
  11:snake.c       ****  *
  12:snake.c       ****  *****************************************************************************/
  13:snake.c       **** 
  14:snake.c       **** /******************************************************************************
  15:snake.c       ****  * Includes
  16:snake.c       ****  *****************************************************************************/
  17:snake.c       **** #include "../pre_emptive_os/api/osapi.h"
  18:snake.c       **** #include "../pre_emptive_os/api/general.h"
  19:snake.c       **** #include "startup/lpc2xxx.h"
  20:snake.c       **** #include <printf_P.h>
  21:snake.c       **** #include <ea_init.h>
  22:snake.c       **** #include <stdlib.h>
  23:snake.c       **** #include "lcd.h"
  24:snake.c       **** #include "key.h"
  25:snake.c       **** #include "select.h"
  26:snake.c       **** #include "time.h"
  27:snake.c       **** 
  28:snake.c       **** #include "configAppl.h"
  29:snake.c       **** 
  30:snake.c       **** 
  31:snake.c       **** /******************************************************************************
  32:snake.c       ****  * Typedefs and defines
  33:snake.c       ****  *****************************************************************************/
  34:snake.c       **** #define GAME_NOT_STARTED 0
  35:snake.c       **** #define GAME_RUNNING     1
ARM GAS  /cygdrive/c/DOCUME~1/witaj/USTAWI~1/Temp/ccGe29Ta.s 			page 2


  36:snake.c       **** #define GAME_OVER        2
  37:snake.c       **** #define GAME_END         3
  38:snake.c       **** 
  39:snake.c       **** #define BACKGROUND_COLOR 0
  40:snake.c       **** #define SNAKE_COLOR 0x5d
  41:snake.c       **** #define SNACK_COLOR 0x8d
  42:snake.c       **** 
  43:snake.c       **** #define MOVE_UP         4
  44:snake.c       **** #define MOVE_DOWN       1
  45:snake.c       **** #define MOVE_LEFT       2
  46:snake.c       **** #define MOVE_RIGHT      3
  47:snake.c       **** 
  48:snake.c       **** #define ARENA_SIZE      32
  49:snake.c       **** #define MAX_SNAKE_SIZE  64
  50:snake.c       **** //#define BOARD_WIDTH  10
  51:snake.c       **** //#define BOARD_HEIGHT 16
  52:snake.c       **** 
  53:snake.c       **** //#define FIGURE_SIZE 4
  54:snake.c       **** //#define NUM_OF_FIGURE 19
  55:snake.c       **** #define LED_GREEN 0
  56:snake.c       **** #define LED_RED 1
  57:snake.c       **** 
  58:snake.c       **** #define SOH 1
  59:snake.c       **** #define NAK 21
  60:snake.c       **** #define ACK 6
  61:snake.c       **** #define EOT 4
  62:snake.c       **** #define CAN 24
  63:snake.c       **** #define C 67
  64:snake.c       **** 
  65:snake.c       **** 
  66:snake.c       **** /*****************************************************************************
  67:snake.c       ****  * Local variables
  68:snake.c       ****  ****************************************************************************/
  69:snake.c       **** static tU8 gameStatus;
  70:snake.c       **** static tU8 snakeXPos;
  71:snake.c       **** static tU8 snakeYPos;
  72:snake.c       **** static tU8 snakeSize;
  73:snake.c       **** static tU8 lastKey;
  74:snake.c       **** static tU8 isOn;
  75:snake.c       **** 
  76:snake.c       **** static tU32 timeVal;
  77:snake.c       **** static tU8 gameArena[ARENA_SIZE][ARENA_SIZE];
  78:snake.c       **** static tU8 snakeTail[MAX_SNAKE_SIZE];
  79:snake.c       **** static tU8 snakeTailGuard;
  80:snake.c       **** //static tU8 score;
  81:snake.c       **** 
  82:snake.c       **** //static tS32 shift[NUM_OF_FIGURE]={1,0,3,4,5,2,7,8,9,6,11,12,13,10,15,14,17,16,18};
  83:snake.c       **** //static tS32 board[BOARD_WIDTH][BOARD_HEIGHT];
  84:snake.c       **** //static tS32 currFigure;
  85:snake.c       **** //static tS32 currXpos;
  86:snake.c       **** //static tS32 currYpos;
  87:snake.c       **** //static volatile tU32 lastUpdate;
  88:snake.c       **** //static volatile tU32 delayTimeMs;
  89:snake.c       **** 
  90:snake.c       **** 
  91:snake.c       **** /*****************************************************************************
  92:snake.c       ****  * External variables
ARM GAS  /cygdrive/c/DOCUME~1/witaj/USTAWI~1/Temp/ccGe29Ta.s 			page 3


  93:snake.c       ****  ****************************************************************************/
  94:snake.c       **** //extern volatile tU32 ms;
  95:snake.c       **** 
  96:snake.c       **** 
  97:snake.c       **** //char figures[NUM_OF_FIGURE][FIGURE_SIZE][FIGURE_SIZE]=
  98:snake.c       **** //{{".X..",
  99:snake.c       **** //  ".X..",
 100:snake.c       **** //  ".X..",
 101:snake.c       **** //  ".X.."},
 102:snake.c       **** // {"....",
 103:snake.c       **** //  "XXXX",
 104:snake.c       **** //  "....",
 105:snake.c       **** //  "...."},
 106:snake.c       **** 
 107:snake.c       **** // {"XXX.",
 108:snake.c       **** //  "X...",
 109:snake.c       **** //  "....",
 110:snake.c       **** //  "...."},
 111:snake.c       **** // {".XX.",
 112:snake.c       **** //  "..X.",
 113:snake.c       **** //  "..X.",
 114:snake.c       **** //  "...."},
 115:snake.c       **** // {"..X.",
 116:snake.c       **** //  "XXX.",
 117:snake.c       **** //  "....",
 118:snake.c       **** //  "...."},
 119:snake.c       **** // {".X..",
 120:snake.c       **** //  ".X..",
 121:snake.c       **** //  ".XX.",
 122:snake.c       **** //  "...."},
 123:snake.c       **** 
 124:snake.c       **** // {"XXX.",
 125:snake.c       **** //  "..X.",
 126:snake.c       **** //  "....",
 127:snake.c       **** //  "...."},
 128:snake.c       **** // {"..X.",
 129:snake.c       **** //  "..X.",
 130:snake.c       **** //  ".XX.",
 131:snake.c       **** //  "...."},
 132:snake.c       **** // {"X...",
 133:snake.c       **** //  "XXX.",
 134:snake.c       **** //  "....",
 135:snake.c       **** //  "...."},
 136:snake.c       **** // {".XX.",
 137:snake.c       **** //  ".X..",
 138:snake.c       **** //  ".X..",
 139:snake.c       **** //  "...."},
 140:snake.c       **** 
 141:snake.c       **** // {".X..",
 142:snake.c       **** //  "XXX.",
 143:snake.c       **** //  "....",
 144:snake.c       **** //  "...."},
 145:snake.c       **** // {".X..",
 146:snake.c       **** //  ".XX.",
 147:snake.c       **** //  ".X..",
 148:snake.c       **** //  "...."},
 149:snake.c       **** // {"XXX.",
ARM GAS  /cygdrive/c/DOCUME~1/witaj/USTAWI~1/Temp/ccGe29Ta.s 			page 4


 150:snake.c       **** //  ".X..",
 151:snake.c       **** //  "....",
 152:snake.c       **** //  "...."},
 153:snake.c       **** // {".X..",
 154:snake.c       **** //  "XX..",
 155:snake.c       **** //  ".X..",
 156:snake.c       **** //  "...."},
 157:snake.c       **** 
 158:snake.c       **** // {"X...",
 159:snake.c       **** //  "XX..",
 160:snake.c       **** //  ".X..",
 161:snake.c       **** //  "...."},
 162:snake.c       **** // {".XX.",
 163:snake.c       **** //  "XX..",
 164:snake.c       **** //  "....",
 165:snake.c       **** //  "...."},
 166:snake.c       **** 
 167:snake.c       **** // {".X..",
 168:snake.c       **** //  "XX..",
 169:snake.c       **** //  "X...",
 170:snake.c       **** //  "...."},
 171:snake.c       **** // {"XX..",
 172:snake.c       **** //  ".XX.",
 173:snake.c       **** //  "....",
 174:snake.c       **** //  "...."},
 175:snake.c       **** // {"XX..",
 176:snake.c       **** //  "XX..",
 177:snake.c       **** //  "....",
 178:snake.c       **** //  "...."}};
 179:snake.c       **** 
 180:snake.c       **** 
 181:snake.c       **** ///*****************************************************************************
 182:snake.c       **** // *
 183:snake.c       **** // * Description:
 184:snake.c       **** // *    Check if current place for figure is valid
 185:snake.c       **** // *
 186:snake.c       **** // ****************************************************************************/
 187:snake.c       **** //static tS8
 188:snake.c       **** //isValid(tS32 x, tS32 y, tS32 shape)
 189:snake.c       **** //{
 190:snake.c       **** //  tS32 i,j;
 191:snake.c       **** 
 192:snake.c       **** //  for (i=0; i<FIGURE_SIZE; i++)
 193:snake.c       **** //    for (j=0; j<FIGURE_SIZE; j++)
 194:snake.c       **** //      if((figures[shape][i][j] == 'X') &&
 195:snake.c       **** //         ((i+x >= BOARD_WIDTH) || (j+y >= BOARD_HEIGHT) || (i+x < 0)))
 196:snake.c       **** //        return 0;
 197:snake.c       **** 
 198:snake.c       **** //  for (i=0; i<FIGURE_SIZE; i++)
 199:snake.c       **** //    for (j=0; j<FIGURE_SIZE; j++)
 200:snake.c       **** //      if((i+x < BOARD_WIDTH) &&
 201:snake.c       **** //         (j+y < BOARD_HEIGHT) &&
 202:snake.c       **** //         (figures[shape][i][j] == 'X') &&
 203:snake.c       **** //         (board[i+x][j+y] != 0))
 204:snake.c       **** //        return 0;
 205:snake.c       **** 
 206:snake.c       **** //  return 1;
ARM GAS  /cygdrive/c/DOCUME~1/witaj/USTAWI~1/Temp/ccGe29Ta.s 			page 5


 207:snake.c       **** //}
 208:snake.c       **** 
 209:snake.c       **** 
 210:snake.c       **** ///*****************************************************************************
 211:snake.c       **** // *
 212:snake.c       **** // * Description:
 213:snake.c       **** // *    Draw/refresh game board
 214:snake.c       **** // *
 215:snake.c       **** // ****************************************************************************/
 216:snake.c       **** //static void
 217:snake.c       **** //drawGame(void)
 218:snake.c       **** //{
 219:snake.c       **** //  tS32 i,j;
 220:snake.c       **** 
 221:snake.c       **** //  for (i=1; i<=BOARD_WIDTH; i++)
 222:snake.c       **** //    for (j=1; j<=BOARD_HEIGHT; j++)
 223:snake.c       **** //      if(board[i-1][j-1] != 0)
 224:snake.c       **** //        lcdRectBrd(30+(i*6), 10+(j*6), 6, 6, 209,50,5);
 225:snake.c       **** //      else
 226:snake.c       **** //        lcdRect(30+(i*6), 10+(j*6), 6, 6, 0);
 227:snake.c       **** //}
 228:snake.c       **** 
 229:snake.c       **** 
 230:snake.c       **** ///*****************************************************************************
 231:snake.c       **** // *
 232:snake.c       **** // * Description:
 233:snake.c       **** // *    Insert one figure at a specific x,y position on the game board
 234:snake.c       **** // *
 235:snake.c       **** // ****************************************************************************/
 236:snake.c       **** //static void
 237:snake.c       **** //insertFigure(tS32 shape, tS32 x, tS32 y)
 238:snake.c       **** //{
 239:snake.c       **** //  tS32 i,j;
 240:snake.c       **** 
 241:snake.c       **** //  for (i=0; i<FIGURE_SIZE; i++)
 242:snake.c       **** //    for (j=0; j<FIGURE_SIZE; j++)
 243:snake.c       **** //      if(figures[shape][i][j] == 'X')
 244:snake.c       **** //        board[x+i][y+j] = 1;
 245:snake.c       **** //}
 246:snake.c       **** 
 247:snake.c       **** 
 248:snake.c       **** ///*****************************************************************************
 249:snake.c       **** // *
 250:snake.c       **** // * Description:
 251:snake.c       **** // *    Delete one figure at a specific x,y position on the game board
 252:snake.c       **** // *
 253:snake.c       **** // ****************************************************************************/
 254:snake.c       **** //static void
 255:snake.c       **** //deleteFigure(tS32 shape, tS32 x, tS32 y)
 256:snake.c       **** //{
 257:snake.c       **** //  tS32 i,j;
 258:snake.c       **** 
 259:snake.c       **** //  for (i=0; i<FIGURE_SIZE; i++)
 260:snake.c       **** //    for (j=0; j<FIGURE_SIZE; j++)
 261:snake.c       **** //      if(figures[shape][i][j] == 'X')
 262:snake.c       **** //        board[x+i][y+j] = 0;
 263:snake.c       **** //}
ARM GAS  /cygdrive/c/DOCUME~1/witaj/USTAWI~1/Temp/ccGe29Ta.s 			page 6


 264:snake.c       **** 
 265:snake.c       **** 
 266:snake.c       **** ///*****************************************************************************
 267:snake.c       **** // *
 268:snake.c       **** // * Description:
 269:snake.c       **** // *    Returns TRUE if one row of the board is full
 270:snake.c       **** // *
 271:snake.c       **** // ****************************************************************************/
 272:snake.c       **** //static char
 273:snake.c       **** //full(tS32 j)
 274:snake.c       **** //{
 275:snake.c       **** //  tS32 i;
 276:snake.c       **** 
 277:snake.c       **** //  for(i=0; i<BOARD_WIDTH; i++)
 278:snake.c       **** //    if(board[i][j] != 1)
 279:snake.c       **** //      return 0;
 280:snake.c       **** 
 281:snake.c       **** //  return 1;
 282:snake.c       **** //}
 283:snake.c       **** 
 284:snake.c       **** 
 285:snake.c       **** ///*****************************************************************************
 286:snake.c       **** // *
 287:snake.c       **** // * Description:
 288:snake.c       **** // *    Draw the current score
 289:snake.c       **** // *
 290:snake.c       **** // ****************************************************************************/
 291:snake.c       **** //static void
 292:snake.c       **** //drawScore(void)
 293:snake.c       **** //{
 294:snake.c       **** //  tU8 str[4];
 295:snake.c       **** 
 296:snake.c       **** //  str[0] = score/100 + '0';
 297:snake.c       **** //  str[1] = (score/10)%10 + '0';
 298:snake.c       **** //  str[2] = score%10 + '0';
 299:snake.c       **** //  str[3] = 0;
 300:snake.c       **** //  if (str[0] == '0')
 301:snake.c       **** //  {
 302:snake.c       **** //    str[0] = ' ';
 303:snake.c       **** //    if (str[1] == '0')
 304:snake.c       **** //      str[1] = ' ';
 305:snake.c       **** //  }
 306:snake.c       **** //  lcdGotoxy(80,116);
 307:snake.c       **** //  lcdPuts(str);
 308:snake.c       **** //}
 309:snake.c       **** 
 310:snake.c       **** 
 311:snake.c       **** ///*****************************************************************************
 312:snake.c       **** // *
 313:snake.c       **** // * Description:
 314:snake.c       **** // *    Check if time to update score
 315:snake.c       **** // *
 316:snake.c       **** // ****************************************************************************/
 317:snake.c       **** //static void
 318:snake.c       **** //checkScore(void)
 319:snake.c       **** //{
 320:snake.c       **** //  tS32 i,j,k;
ARM GAS  /cygdrive/c/DOCUME~1/witaj/USTAWI~1/Temp/ccGe29Ta.s 			page 7


 321:snake.c       **** 
 322:snake.c       **** //  for (j=0; j<BOARD_HEIGHT; j++)
 323:snake.c       **** //  {
 324:snake.c       **** //    //check if one row is full
 325:snake.c       **** //    if(full(j))
 326:snake.c       **** //    {
 327:snake.c       **** //      //if so, erase that row...
 328:snake.c       **** //      for(k=j; k>0; k--)
 329:snake.c       **** //        for(i=0; i<BOARD_WIDTH; i++)
 330:snake.c       **** //          board[i][k] = board[i][k-1];
 331:snake.c       **** 
 332:snake.c       **** //      //and update score
 333:snake.c       **** //      score++;
 334:snake.c       **** //      drawScore();
 335:snake.c       **** //    }
 336:snake.c       **** //  }
 337:snake.c       **** //}
 338:snake.c       **** 
 339:snake.c       **** 
 340:snake.c       **** ///*****************************************************************************
 341:snake.c       **** // *
 342:snake.c       **** // * Description:
 343:snake.c       **** // *    Returns TRUE if game is over
 344:snake.c       **** // *
 345:snake.c       **** // ****************************************************************************/
 346:snake.c       **** //static char
 347:snake.c       **** //gameOver(void)
 348:snake.c       **** //{
 349:snake.c       **** //  tS32 i;
 350:snake.c       **** 
 351:snake.c       **** //  for(i=0; i<NUM_OF_FIGURE; i++)
 352:snake.c       **** //    if(!isValid(3,0,i))
 353:snake.c       **** //      return 1;
 354:snake.c       **** 
 355:snake.c       **** //  return 0;
 356:snake.c       **** //}
 357:snake.c       **** 
 358:snake.c       **** 
 359:snake.c       **** ///*****************************************************************************
 360:snake.c       **** // *
 361:snake.c       **** // * Description:
 362:snake.c       **** // *    Calculate new update/advance time, based in current score
 363:snake.c       **** // *    The higher score, the shorter update time
 364:snake.c       **** // *
 365:snake.c       **** // ****************************************************************************/
 366:snake.c       **** //static void
 367:snake.c       **** //updateDelayTime(void)
 368:snake.c       **** //{
 369:snake.c       **** //  if (score >= 75)
 370:snake.c       **** //    delayTimeMs = 200;
 371:snake.c       **** //  else if (score >= 50)
 372:snake.c       **** //    delayTimeMs = 300;
 373:snake.c       **** //  else if (score >= 25)
 374:snake.c       **** //    delayTimeMs = 350;
 375:snake.c       **** //  else if (score >= 10)
 376:snake.c       **** //    delayTimeMs = 400;
 377:snake.c       **** //  else
ARM GAS  /cygdrive/c/DOCUME~1/witaj/USTAWI~1/Temp/ccGe29Ta.s 			page 8


 378:snake.c       **** //    delayTimeMs = 500;
 379:snake.c       **** //}
 380:snake.c       **** 
 381:snake.c       **** 
 382:snake.c       **** ///*****************************************************************************
 383:snake.c       **** // *
 384:snake.c       **** // * Description:
 385:snake.c       **** // *    Advance the game, check if game is over
 386:snake.c       **** // *
 387:snake.c       **** // ****************************************************************************/
 388:snake.c       **** //static void
 389:snake.c       **** //advanceGame(void)
 390:snake.c       **** //{
 391:snake.c       **** //  insertFigure(currFigure, currXpos, currYpos);
 392:snake.c       **** //  drawGame();
 393:snake.c       **** //  deleteFigure(currFigure, currXpos, currYpos);
 394:snake.c       **** 
 395:snake.c       **** //  /*******************************************************
 396:snake.c       **** //   * Check if time to update figure position
 397:snake.c       **** //   *******************************************************/
 398:snake.c       **** //  updateDelayTime();
 399:snake.c       **** //  if ((ms - lastUpdate) > delayTimeMs)
 400:snake.c       **** //  {
 401:snake.c       **** //    lastUpdate = ms;
 402:snake.c       **** 
 403:snake.c       **** //    if (isValid(currXpos, currYpos+1, currFigure))
 404:snake.c       **** //      currYpos++;
 405:snake.c       **** 
 406:snake.c       **** //    //figure has hit bottom
 407:snake.c       **** //    //insert new, random figure on the game board
 408:snake.c       **** //    else
 409:snake.c       **** //    {
 410:snake.c       **** //      insertFigure(currFigure, currXpos, currYpos);
 411:snake.c       **** //      currYpos  = 0;
 412:snake.c       **** //      currXpos  = 3;
 413:snake.c       **** //      currFigure = rand() % NUM_OF_FIGURE;
 414:snake.c       **** 
 415:snake.c       **** //      //check if game is over
 416:snake.c       **** //      if (gameOver())
 417:snake.c       **** //        gameStatus = GAME_OVER;
 418:snake.c       **** //    }
 419:snake.c       **** 
 420:snake.c       **** //    //check score, i.e., if any rows are full
 421:snake.c       **** //    checkScore();
 422:snake.c       **** //  }
 423:snake.c       **** //}
 424:snake.c       **** 
 425:snake.c       **** 
 426:snake.c       **** /*****************************************************************************
 427:snake.c       ****  *
 428:snake.c       ****  * Description:
 429:snake.c       ****  *    Draw game background and game board, initialize all variables
 430:snake.c       ****  *
 431:snake.c       ****  ****************************************************************************/
 432:snake.c       **** //static void
 433:snake.c       **** //setupGame (tBool drawBoard)
 434:snake.c       **** //{
ARM GAS  /cygdrive/c/DOCUME~1/witaj/USTAWI~1/Temp/ccGe29Ta.s 			page 9


 435:snake.c       **** //  tS32 i,j;
 436:snake.c       **** 
 437:snake.c       **** //  //initialize random generator and reset score
 438:snake.c       **** //  srand(ms);
 439:snake.c       **** //  score = 0;
 440:snake.c       **** 
 441:snake.c       **** 
 442:snake.c       **** //  //draw game board
 443:snake.c       **** //  if (drawBoard == TRUE)
 444:snake.c       **** //  {
 445:snake.c       **** //    lcdColor(1, 0xe0);
 446:snake.c       **** //    lcdGotoxy(16, 116);
 447:snake.c       **** //    lcdPuts(" Score:   0 ");
 448:snake.c       **** 
 449:snake.c       **** //    lcdRect(34, 14, 64, 100, 3);
 450:snake.c       **** //    lcdRect(36, 16, 60, 96, 0);
 451:snake.c       **** //  }
 452:snake.c       **** 
 453:snake.c       **** //  //initialise game board
 454:snake.c       **** //  for (i=0; i<BOARD_WIDTH; i++)
 455:snake.c       **** //    for (j=0; j<BOARD_HEIGHT; j++)
 456:snake.c       **** //      board[i][j] = 0;
 457:snake.c       **** 
 458:snake.c       **** //  currFigure = rand() % NUM_OF_FIGURE;
 459:snake.c       **** //  currXpos  = 3;
 460:snake.c       **** //  currYpos  = 0;
 461:snake.c       **** //  insertFigure(currFigure, currXpos, currYpos);
 462:snake.c       **** 
 463:snake.c       **** //  lastUpdate = ms;
 464:snake.c       **** //}
 465:snake.c       **** 
 466:snake.c       **** int toggle = 0;
 467:snake.c       **** int count = 0;
 468:snake.c       **** 
 469:snake.c       **** tU16 notes[] = {262, 294, 330, 349, 392, 440, 494, 523}; //C D E F G A B C
 470:snake.c       **** int note = 0;
 471:snake.c       **** 
 472:snake.c       **** static void
 473:snake.c       **** startMusic(void)
 474:snake.c       **** {
 475:snake.c       ****         setBuzzer(toggle == 0 ? FALSE : TRUE);
 476:snake.c       **** 
 477:snake.c       ****         toggle = ~toggle;
 478:snake.c       ****         count++;
 479:snake.c       **** 
 480:snake.c       ****         if(count == notes[note]*10) //Note delay
 481:snake.c       ****         {
 482:snake.c       ****                 if(note < 8)
 483:snake.c       ****                                 note++;                 //choose next note
 484:snake.c       ****                 if(note == 8)
 485:snake.c       ****                 {
 486:snake.c       ****                                 T1MCR = 0x06;   //Stop and reset timer at MR0
 487:snake.c       ****                                 setBuzzer(FALSE);
 488:snake.c       ****                                 setLED(LED_GREEN, FALSE);
 489:snake.c       ****                                 setLED(LED_RED, FALSE);
 490:snake.c       ****                                 note = 0;
 491:snake.c       ****                 }
ARM GAS  /cygdrive/c/DOCUME~1/witaj/USTAWI~1/Temp/ccGe29Ta.s 			page 10


 492:snake.c       ****                 T1TCR = 0x02;                                              //Disable and reset time
 493:snake.c       ****                 T1MR0 = CORE_FREQ / (100*notes[note]); //set new timer's ticks
 494:snake.c       ****                 T1TCR = 0x01;                                              //Start timer
 495:snake.c       ****                 count = 0;
 496:snake.c       ****         }
 497:snake.c       **** 
 498:snake.c       ****         T1IR        = 0x000000ff;        //reset all IRQ flags
 499:snake.c       ****         VICVectAddr = 0x00000000;        //dummy write to VIC to signal end of interrupt
 500:snake.c       **** }
 501:snake.c       **** 
 502:snake.c       **** static void
 503:snake.c       **** eatNoise(void)
 504:snake.c       **** {
 505:snake.c       ****     setBuzzer(toggle == 0 ? FALSE : TRUE);
 506:snake.c       **** 
 507:snake.c       ****     toggle = ~toggle;
 508:snake.c       ****     count++;
 509:snake.c       **** 
 510:snake.c       ****     if(count == notes[note]*10) //Note delay
 511:snake.c       ****     {
 512:snake.c       ****             if(note < 3)
 513:snake.c       ****                             note++;                 //choose next note
 514:snake.c       ****             if(note == 3)
 515:snake.c       ****             {
 516:snake.c       ****                             T1MCR = 0x06;   //Stop and reset timer at MR0
 517:snake.c       ****                             setBuzzer(FALSE);
 518:snake.c       ****                             setLED(LED_GREEN, FALSE);
 519:snake.c       ****                             setLED(LED_RED, FALSE);
 520:snake.c       ****                             note = 0;
 521:snake.c       ****             }
 522:snake.c       ****             T1TCR = 0x02;                                              //Disable and reset timer
 523:snake.c       ****             T1MR0 = CORE_FREQ / (100*(notes[note] + 15 * snakeSize)); //set new timer's ticks
 524:snake.c       ****             T1TCR = 0x01;                                              //Start timer
 525:snake.c       ****             count = 0;
 526:snake.c       ****     }
 527:snake.c       **** 
 528:snake.c       ****     T1IR        = 0x000000ff;        //reset all IRQ flags
 529:snake.c       ****     VICVectAddr = 0x00000000;        //dummy write to VIC to signal end of interrupt
 530:snake.c       **** }
 531:snake.c       **** 
 532:snake.c       **** static void
 533:snake.c       **** waitUp(void)
 534:snake.c       **** {
 535:snake.c       ****     RTC_CIIR = 0x1;
 536:snake.c       **** }
 537:snake.c       **** 
 538:snake.c       **** static void
 539:snake.c       **** initTimer1(tU32 functionAdress)
 540:snake.c       **** {
  19              		.loc 1 540 0
  20 0000 30B5     		push	{r4, r5, lr}
  21              	.LCFI0:
  22              	.LVL0:
 541:snake.c       ****         //initialize and start Timer #0
 542:snake.c       ****         T1TCR = 0x00000002;                           //disable and reset Timer0
  23              		.loc 1 542 0
  24 0002 174C     		ldr	r4, .L3
ARM GAS  /cygdrive/c/DOCUME~1/witaj/USTAWI~1/Temp/ccGe29Ta.s 			page 11


  25 0004 0223     		mov	r3, #2
  26 0006 2360     		str	r3, [r4]
 543:snake.c       ****         T1PC  = 0x00000000;                           //no prescale of clock
  27              		.loc 1 543 0
  28 0008 164B     		ldr	r3, .L3+4
  29 000a 0022     		mov	r2, #0
  30 000c 1A60     		str	r2, [r3]
 544:snake.c       ****         T1MR0 = CORE_FREQ / (100*notes[note]);        //calculate no of timer ticks for note[0] its
  31              		.loc 1 544 0
  32 000e 164B     		ldr	r3, .L3+8
  33 0010 1B68     		ldr	r3, [r3]
  34 0012 164A     		ldr	r2, .L3+12
  35 0014 5B00     		lsl	r3, r3, #1
  36 0016 9A5A     		ldrh	r2, [r3, r2]
  37              		.loc 1 540 0
  38 0018 051C     		mov	r5, r0
  39              		.loc 1 544 0
  40 001a 6423     		mov	r3, #100
  41 001c E120     		mov	r0, #225
  42              	.LVL1:
  43 001e 111C     		mov	r1, r2
  44 0020 5943     		mul	r1, r3
  45 0022 8004     		lsl	r0, r0, #18
  46 0024 FFF7FEFF 		bl	__divsi3
  47 0028 114B     		ldr	r3, .L3+16
 545:snake.c       ****         T1IR  = 0x000000ff;                           //reset all flags before enable IRQs
  48              		.loc 1 545 0
  49 002a FF22     		mov	r2, #255
  50              		.loc 1 544 0
  51 002c 1860     		str	r0, [r3]
  52              		.loc 1 545 0
  53 002e 183B     		sub	r3, r3, #24
  54 0030 1A60     		str	r2, [r3]
 546:snake.c       ****         T1MCR = 0x00000003;                           //reset counter and generate IRQ on MR0 match
  55              		.loc 1 546 0
  56 0032 0322     		mov	r2, #3
  57 0034 1433     		add	r3, r3, #20
  58 0036 1A60     		str	r2, [r3]
 547:snake.c       **** 
 548:snake.c       ****         //initialize VIC for Timer0 interrupts
 549:snake.c       ****         VICIntSelect &= ~0x20;           //Timer1 interrupt is assigned to IRQ (not FIQ)
  59              		.loc 1 549 0
  60 0038 0E4A     		ldr	r2, .L3+20
  61 003a 1368     		ldr	r3, [r2]
  62 003c 2021     		mov	r1, #32
  63 003e 8B43     		bic	r3, r3, r1
  64 0040 1360     		str	r3, [r2]
 550:snake.c       ****         VICVectAddr5  = functionAdress; //register ISR address
  65              		.loc 1 550 0
  66 0042 0D4B     		ldr	r3, .L3+24
  67 0044 1D60     		str	r5, [r3]
 551:snake.c       ****         VICVectCntl5  = 0x25;            //enable vector interrupt for timer1
  68              		.loc 1 551 0
  69 0046 0D4B     		ldr	r3, .L3+28
  70 0048 2522     		mov	r2, #37
  71 004a 1A60     		str	r2, [r3]
 552:snake.c       ****         VICIntEnable  |= 0x20;           //enable timer1 interrupt
ARM GAS  /cygdrive/c/DOCUME~1/witaj/USTAWI~1/Temp/ccGe29Ta.s 			page 12


  72              		.loc 1 552 0
  73 004c 0C4A     		ldr	r2, .L3+32
  74 004e 1368     		ldr	r3, [r2]
  75 0050 0B43     		orr	r3, r3, r1
  76 0052 1360     		str	r3, [r2]
 553:snake.c       ****         T1TCR = 0x00000001;              //start Timer1
  77              		.loc 1 553 0
  78 0054 0123     		mov	r3, #1
  79 0056 2360     		str	r3, [r4]
 554:snake.c       **** }
  80              		.loc 1 554 0
  81              		@ sp needed for prologue
  82              	.LVL2:
  83 0058 30BC     		pop	{r4, r5}
  84 005a 01BC     		pop	{r0}
  85 005c 0047     		bx	r0
  86              	.L4:
  87 005e 0000     		.align	2
  88              	.L3:
  89 0060 048000E0 		.word	-536838140
  90 0064 108000E0 		.word	-536838128
  91 0068 00000000 		.word	note
  92 006c 00000000 		.word	notes
  93 0070 188000E0 		.word	-536838120
  94 0074 0CF0FFFF 		.word	-4084
  95 0078 14F1FFFF 		.word	-3820
  96 007c 14F2FFFF 		.word	-3564
  97 0080 10F0FFFF 		.word	-4080
  98              	.LFE5:
  99              		.size	initTimer1, .-initTimer1
 100              		.align	2
 101              		.global	stopTimer1
 102              		.code 16
 103              		.thumb_func
 104              		.type	stopTimer1, %function
 105              	stopTimer1:
 106              	.LFB6:
 555:snake.c       **** 
 556:snake.c       **** void stopTimer1()
 557:snake.c       **** {
 107              		.loc 1 557 0
 558:snake.c       ****     T1MCR = 0x06;   //Stop and reset timer at MR0
 108              		.loc 1 558 0
 109 0084 014B     		ldr	r3, .L7
 110 0086 0622     		mov	r2, #6
 111              		.loc 1 557 0
 112              		@ lr needed for prologue
 113              		.loc 1 558 0
 114 0088 1A60     		str	r2, [r3]
 559:snake.c       **** }
 115              		.loc 1 559 0
 116              		@ sp needed for prologue
 117 008a 7047     		bx	lr
 118              	.L8:
 119              		.align	2
 120              	.L7:
 121 008c 148000E0 		.word	-536838124
ARM GAS  /cygdrive/c/DOCUME~1/witaj/USTAWI~1/Temp/ccGe29Ta.s 			page 13


 122              	.LFE6:
 123              		.size	stopTimer1, .-stopTimer1
 124              		.align	2
 125              		.global	enterSleepMode
 126              		.code 16
 127              		.thumb_func
 128              		.type	enterSleepMode, %function
 129              	enterSleepMode:
 130              	.LFB16:
 560:snake.c       **** 
 561:snake.c       **** static void
 562:snake.c       **** drawArena(void)
 563:snake.c       **** {
 564:snake.c       ****     tU8 step = 128 / ARENA_SIZE;
 565:snake.c       ****     tU8 i,j;
 566:snake.c       ****     for(i = 0; i < ARENA_SIZE; i++)
 567:snake.c       ****     {
 568:snake.c       ****         for(j = 0; j < ARENA_SIZE; j++)
 569:snake.c       ****         {
 570:snake.c       ****             lcdRect(step * i, step * j, step, step, gameArena[i][j]);
 571:snake.c       ****         }
 572:snake.c       ****     }
 573:snake.c       **** }
 574:snake.c       **** 
 575:snake.c       **** static void
 576:snake.c       **** setBorder(tU8 color)
 577:snake.c       **** {
 578:snake.c       ****     tU8 i,j;
 579:snake.c       ****     for(i = 0; i < ARENA_SIZE; i++)
 580:snake.c       ****     {
 581:snake.c       ****         for(j = 0; j < ARENA_SIZE; j++)
 582:snake.c       ****         {
 583:snake.c       ****             if (i == 0 || j == 0 || i == ARENA_SIZE - 1 || j == ARENA_SIZE - 1)
 584:snake.c       ****             {
 585:snake.c       ****                 gameArena[i][j] = color;
 586:snake.c       ****             }
 587:snake.c       ****         }
 588:snake.c       ****     }
 589:snake.c       **** }
 590:snake.c       **** 
 591:snake.c       **** static void
 592:snake.c       **** setField(tU8 x, tU8 y, tU8 color)
 593:snake.c       **** {
 594:snake.c       ****     gameArena[x][y] = color;
 595:snake.c       **** }
 596:snake.c       **** 
 597:snake.c       **** static void
 598:snake.c       **** resetSnake()
 599:snake.c       **** {
 600:snake.c       **** 	int j = 0, i = snakeTailGuard;
 601:snake.c       **** 	int index;
 602:snake.c       **** 	tU8 snakeTailCopy[snakeSize];
 603:snake.c       **** 	/*
 604:snake.c       **** 	for(index = 0; index < snakeSize; index++)
 605:snake.c       **** 	{
 606:snake.c       **** 		snakeTailCopy[snakeSize-index-1] = snakeTail[(snakeTailGuard+index)%snakeSize];
 607:snake.c       **** 	}
ARM GAS  /cygdrive/c/DOCUME~1/witaj/USTAWI~1/Temp/ccGe29Ta.s 			page 14


 608:snake.c       **** 	*/
 609:snake.c       **** 	do 
 610:snake.c       ****     {
 611:snake.c       **** 		snakeTailCopy[snakeSize-1-i] = snakeTail[i];
 612:snake.c       ****         i = (i + 1) % snakeSize;
 613:snake.c       ****     }while(i != snakeTailGuard % snakeSize);
 614:snake.c       **** 	snakeTailGuard = snakeSize - 1;
 615:snake.c       **** }
 616:snake.c       **** 
 617:snake.c       **** static void
 618:snake.c       **** makeNoise()
 619:snake.c       **** {
 620:snake.c       **** //    setBuzzer(TRUE);
 621:snake.c       **** //    setLED(LED_GREEN, FALSE);
 622:snake.c       **** //    setLED(LED_RED,   TRUE);
 623:snake.c       **** //    osSleep(1);
 624:snake.c       **** 
 625:snake.c       **** //    setBuzzer(FALSE);
 626:snake.c       **** //    setLED(LED_GREEN, TRUE);
 627:snake.c       **** //    setLED(LED_RED,   FALSE);
 628:snake.c       **** //    osSleep(1);
 629:snake.c       **** 
 630:snake.c       ****     initTimer1((tU32)eatNoise);
 631:snake.c       **** }
 632:snake.c       **** 
 633:snake.c       **** static void
 634:snake.c       **** moveField(tU8 x, tU8 y, tU8 direction)
 635:snake.c       **** {
 636:snake.c       ****     int actualX = x;
 637:snake.c       ****     int actualY = y;
 638:snake.c       ****     // Draw point.
 639:snake.c       ****     switch(direction)
 640:snake.c       ****     {
 641:snake.c       ****     case MOVE_DOWN:
 642:snake.c       ****         actualY++;
 643:snake.c       ****         break;
 644:snake.c       ****     case MOVE_UP:
 645:snake.c       ****         actualY--;
 646:snake.c       ****         break;
 647:snake.c       ****     case MOVE_LEFT:
 648:snake.c       ****         actualX--;
 649:snake.c       ****         break;
 650:snake.c       ****     case MOVE_RIGHT:
 651:snake.c       ****         actualX++;
 652:snake.c       ****         break;
 653:snake.c       ****     default:
 654:snake.c       ****         return;
 655:snake.c       ****     }
 656:snake.c       **** 
 657:snake.c       **** 	cleanEndOfTail();
 658:snake.c       **** 	
 659:snake.c       **** 
 660:snake.c       **** 	
 661:snake.c       ****     // Remember move
 662:snake.c       ****     snakeTail[snakeTailGuard] = direction;
 663:snake.c       ****     snakeTailGuard = (snakeTailGuard + 1) % snakeSize;
 664:snake.c       **** 	
ARM GAS  /cygdrive/c/DOCUME~1/witaj/USTAWI~1/Temp/ccGe29Ta.s 			page 15


 665:snake.c       **** 	if(gameArena[actualX][actualY] == SNAKE_COLOR)
 666:snake.c       ****     {		
 667:snake.c       ****         //GAMEOVER
 668:snake.c       ****     }
 669:snake.c       ****     else if (gameArena[actualX][actualY] == SNACK_COLOR && snakeSize < MAX_SNAKE_SIZE)
 670:snake.c       ****     {
 671:snake.c       **** 		//Move and eat.
 672:snake.c       **** 		//TODO brzeczyk zjadania
 673:snake.c       **** 
 674:snake.c       ****         makeNoise();
 675:snake.c       **** 		resetSnake();
 676:snake.c       ****         snakeSize++;
 677:snake.c       **** 		putSnack();
 678:snake.c       ****     }
 679:snake.c       **** 	else
 680:snake.c       **** 	{
 681:snake.c       **** 		//Normal move. Erase last point
 682:snake.c       **** 	}
 683:snake.c       **** 	
 684:snake.c       **** 	//add snake point
 685:snake.c       **** 	setField(actualX, actualY, SNAKE_COLOR);
 686:snake.c       **** }
 687:snake.c       **** 
 688:snake.c       **** static void
 689:snake.c       **** putSnack()
 690:snake.c       **** {
 691:snake.c       **** 	tU8 x,y, snackSet = 0;
 692:snake.c       **** 	do
 693:snake.c       **** 	{
 694:snake.c       **** 		x = rand() % ARENA_SIZE;
 695:snake.c       **** 		y = rand() % ARENA_SIZE;
 696:snake.c       **** 		if (gameArena[x][y]==BACKGROUND_COLOR)
 697:snake.c       **** 		{
 698:snake.c       **** 			snackSet = 1;
 699:snake.c       **** 			gameArena[x][y] = SNACK_COLOR;
 700:snake.c       **** 		}
 701:snake.c       **** 	}while(!snackSet);
 702:snake.c       **** }
 703:snake.c       **** 
 704:snake.c       **** static tU8
 705:snake.c       **** cleanEndOfTail()
 706:snake.c       **** {
 707:snake.c       ****     tU8 actualX = snakeXPos;
 708:snake.c       ****     tU8 actualY = snakeYPos;
 709:snake.c       **** 	tU8 i = snakeTailGuard;
 710:snake.c       ****     do 
 711:snake.c       ****     {
 712:snake.c       ****         switch(snakeTail[i])
 713:snake.c       ****         {
 714:snake.c       ****         case MOVE_DOWN:
 715:snake.c       ****             actualY--;
 716:snake.c       ****             break;
 717:snake.c       ****         case MOVE_UP:
 718:snake.c       ****             actualY++;
 719:snake.c       ****             break;
 720:snake.c       ****         case MOVE_LEFT:
 721:snake.c       ****             actualX++;
ARM GAS  /cygdrive/c/DOCUME~1/witaj/USTAWI~1/Temp/ccGe29Ta.s 			page 16


 722:snake.c       ****             break;
 723:snake.c       ****         case MOVE_RIGHT:
 724:snake.c       ****             actualX--;
 725:snake.c       ****             break;
 726:snake.c       ****         default:
 727:snake.c       ****             return;
 728:snake.c       ****         }
 729:snake.c       ****         i = (i + 1) % snakeSize;
 730:snake.c       ****     }while(i != snakeTailGuard % snakeSize);
 731:snake.c       **** 	
 732:snake.c       ****     gameArena[actualX][actualY] = BACKGROUND_COLOR;
 733:snake.c       **** }
 734:snake.c       **** 
 735:snake.c       **** static tU8
 736:snake.c       **** mod (tU8 a, tU8 b)
 737:snake.c       **** {
 738:snake.c       ****    tU8 ret = a % b;
 739:snake.c       ****    if(ret < 0)
 740:snake.c       ****      ret+=b;
 741:snake.c       ****    return ret;
 742:snake.c       **** }
 743:snake.c       **** 
 744:snake.c       **** void
 745:snake.c       **** enterSleepMode()
 746:snake.c       **** {
 131              		.loc 1 746 0
 747:snake.c       ****     PCON = 0x2;
 132              		.loc 1 747 0
 133 0090 014B     		ldr	r3, .L11
 134 0092 0222     		mov	r2, #2
 135              		.loc 1 746 0
 136              		@ lr needed for prologue
 137              		.loc 1 747 0
 138 0094 1A60     		str	r2, [r3]
 748:snake.c       **** }
 139              		.loc 1 748 0
 140              		@ sp needed for prologue
 141 0096 7047     		bx	lr
 142              	.L12:
 143              		.align	2
 144              	.L11:
 145 0098 C0C01FE0 		.word	-534789952
 146              	.LFE16:
 147              		.size	enterSleepMode, .-enterSleepMode
 148              		.align	2
 149              		.global	sendScore
 150              		.code 16
 151              		.thumb_func
 152              		.type	sendScore, %function
 153              	sendScore:
 154              	.LFB19:
 749:snake.c       **** 
 750:snake.c       **** void
 751:snake.c       **** moveSnake(tU8 anyKey)
 752:snake.c       **** {
 753:snake.c       ****     if (anyKey == KEY_UP)
 754:snake.c       ****     {
ARM GAS  /cygdrive/c/DOCUME~1/witaj/USTAWI~1/Temp/ccGe29Ta.s 			page 17


 755:snake.c       ****         if(snakeYPos != 1)
 756:snake.c       ****         {
 757:snake.c       ****             moveField(snakeXPos, snakeYPos, MOVE_UP);
 758:snake.c       ****             snakeYPos -= 1;
 759:snake.c       ****         }
 760:snake.c       ****     }
 761:snake.c       ****     else if (anyKey == KEY_DOWN)
 762:snake.c       ****     {
 763:snake.c       ****         if(snakeYPos != ARENA_SIZE - 2)
 764:snake.c       ****         {
 765:snake.c       ****             moveField(snakeXPos, snakeYPos, MOVE_DOWN);
 766:snake.c       ****             snakeYPos += 1;
 767:snake.c       ****         }
 768:snake.c       ****     }
 769:snake.c       ****     else if (anyKey == KEY_RIGHT)
 770:snake.c       ****     {
 771:snake.c       ****         if(snakeXPos != ARENA_SIZE - 2)
 772:snake.c       ****         {
 773:snake.c       ****             moveField(snakeXPos, snakeYPos, MOVE_RIGHT);
 774:snake.c       ****             snakeXPos += 1;
 775:snake.c       ****         }
 776:snake.c       ****     }
 777:snake.c       ****     else if (anyKey == KEY_LEFT)
 778:snake.c       ****     {
 779:snake.c       ****         if(snakeXPos != 1)
 780:snake.c       ****         {
 781:snake.c       ****             moveField(snakeXPos, snakeYPos, MOVE_LEFT);
 782:snake.c       ****             snakeXPos -= 1;
 783:snake.c       ****         }
 784:snake.c       ****     }
 785:snake.c       ****     else if (anyKey == KEY_CENTER)
 786:snake.c       ****     {
 787:snake.c       ****         if (isOn == 0)
 788:snake.c       ****         {
 789:snake.c       ****             setLED(1, 1);
 790:snake.c       ****             setLED(2, 1);
 791:snake.c       ****             isOn = 1;
 792:snake.c       ****             osSleep(1);
 793:snake.c       ****         }
 794:snake.c       ****         else
 795:snake.c       ****         {
 796:snake.c       ****             setLED(1, 0);
 797:snake.c       ****             setLED(2, 0);
 798:snake.c       ****             isOn = 0;
 799:snake.c       ****             osSleep(1);
 800:snake.c       ****         }
 801:snake.c       ****         waitUp();
 802:snake.c       ****         //enterSleepMode();
 803:snake.c       ****     }
 804:snake.c       **** }
 805:snake.c       **** 
 806:snake.c       **** 
 807:snake.c       **** /*****************************************************************************
 808:snake.c       ****  *
 809:snake.c       ****  * Description:
 810:snake.c       ****  *    Implements example game
 811:snake.c       ****  *
ARM GAS  /cygdrive/c/DOCUME~1/witaj/USTAWI~1/Temp/ccGe29Ta.s 			page 18


 812:snake.c       ****  ****************************************************************************/
 813:snake.c       **** void
 814:snake.c       **** playSnake(void)
 815:snake.c       **** {
 816:snake.c       ****     //srand(time(NULL));
 817:snake.c       ****     initTimer1((tU32)startMusic);
 818:snake.c       ****     snakeXPos = 16;
 819:snake.c       ****     snakeYPos = 16;
 820:snake.c       ****     snakeSize = 1; //TODO (nie obslugujemy wiekszych)
 821:snake.c       ****     snakeTailGuard = 0;
 822:snake.c       ****     snakeTail[0] = MOVE_RIGHT;
 823:snake.c       ****     lcdClrscr();
 824:snake.c       ****     setBorder(0xfd);
 825:snake.c       ****     setField(snakeXPos, snakeYPos, SNAKE_COLOR);
 826:snake.c       ****     lastKey = KEY_RIGHT;
 827:snake.c       ****     isOn = 0;
 828:snake.c       **** 	//init snacks
 829:snake.c       **** 	gameArena[10][10] = SNACK_COLOR;
 830:snake.c       **** 	putSnack();
 831:snake.c       **** 	putSnack();
 832:snake.c       ****     for(;;)
 833:snake.c       ****     {
 834:snake.c       ****         timeVal++;
 835:snake.c       **** 
 836:snake.c       **** 
 837:snake.c       ****         tU8 anyKey;
 838:snake.c       **** 
 839:snake.c       ****         anyKey = checkKey();
 840:snake.c       ****         if (anyKey != KEY_NOTHING)
 841:snake.c       ****         {
 842:snake.c       ****             lastKey = anyKey;
 843:snake.c       ****             osSleep(1);
 844:snake.c       ****         }
 845:snake.c       **** 
 846:snake.c       ****         moveSnake(lastKey);
 847:snake.c       ****         drawArena();
 848:snake.c       ****     }
 849:snake.c       **** 
 850:snake.c       **** 
 851:snake.c       ****     //  setupGame(FALSE);
 852:snake.c       ****     //  lcdGotoxy(5,40);
 853:snake.c       ****     //  lcdColor(0,0xe0);
 854:snake.c       ****     //  lcdPuts("Press to start");
 855:snake.c       **** 
 856:snake.c       ****     //  while(gameStatus != GAME_END)
 857:snake.c       ****     //  {
 858:snake.c       ****     //    tU8 anyKey;
 859:snake.c       **** 
 860:snake.c       ****     //    anyKey = checkKey();
 861:snake.c       ****     //    switch(gameStatus)
 862:snake.c       ****     //    {
 863:snake.c       ****     //      case GAME_NOT_STARTED:
 864:snake.c       ****     //        if (anyKey != KEY_NOTHING)
 865:snake.c       ****     //        {
 866:snake.c       ****     //          gameStatus = GAME_RUNNING;
 867:snake.c       ****     //          setupGame(TRUE);
 868:snake.c       ****     //        }
ARM GAS  /cygdrive/c/DOCUME~1/witaj/USTAWI~1/Temp/ccGe29Ta.s 			page 19


 869:snake.c       ****     //        break;
 870:snake.c       **** 
 871:snake.c       ****     //      case GAME_RUNNING:
 872:snake.c       ****     //        if (anyKey != KEY_NOTHING)
 873:snake.c       ****     //        {
 874:snake.c       ****     //          if (anyKey == KEY_UP)
 875:snake.c       ****     //          {
 876:snake.c       ****     //            if(isValid(currXpos, currYpos, shift[currFigure]))
 877:snake.c       ****     //              currFigure = shift[currFigure];
 878:snake.c       ****     //          }
 879:snake.c       ****     //          else if (anyKey == KEY_DOWN)
 880:snake.c       ****     //          {
 881:snake.c       ****     //            if(isValid(currXpos, currYpos+1, currFigure))
 882:snake.c       ****     //              currYpos++;
 883:snake.c       ****     //          }
 884:snake.c       ****     //          else if (anyKey == KEY_RIGHT)
 885:snake.c       ****     //          {
 886:snake.c       ****     //            if(isValid(currXpos+1, currYpos, currFigure))
 887:snake.c       ****     //              currXpos++;
 888:snake.c       ****     //          }
 889:snake.c       ****     //          else if (anyKey == KEY_LEFT)
 890:snake.c       ****     //          {
 891:snake.c       ****     //            if(isValid(currXpos-1, currYpos, currFigure))
 892:snake.c       ****     //              currXpos--;
 893:snake.c       ****     //          }
 894:snake.c       ****     //          else if (anyKey == KEY_CENTER)
 895:snake.c       ****     //            gameStatus = GAME_OVER;
 896:snake.c       **** 
 897:snake.c       ****     //          advanceGame();
 898:snake.c       ****     //          osSleep(1);
 899:snake.c       ****     //        }
 900:snake.c       ****     //        else
 901:snake.c       ****     //        {
 902:snake.c       ****     //          advanceGame();
 903:snake.c       ****     //          osSleep(1);
 904:snake.c       ****     //        }
 905:snake.c       ****     //        break;
 906:snake.c       **** 
 907:snake.c       ****     //      case GAME_OVER:
 908:snake.c       ****     //      {
 909:snake.c       ****     //        tMenu menu;
 910:snake.c       **** 
 911:snake.c       ****     //        menu.xPos = 10;
 912:snake.c       ****     //        menu.yPos = 40;
 913:snake.c       ****     //        menu.xLen = 6+(12*8);
 914:snake.c       ****     //        menu.yLen = 4*14;
 915:snake.c       ****     //        menu.noOfChoices = 2;
 916:snake.c       ****     //        menu.initialChoice = 0;
 917:snake.c       ****     //        menu.pHeaderText = "Game over!";
 918:snake.c       ****     //        menu.headerTextXpos = 20;
 919:snake.c       ****     //        menu.pChoice[0] = "Restart game";
 920:snake.c       ****     //        menu.pChoice[1] = "End game";
 921:snake.c       ****     //        menu.bgColor       = 0;
 922:snake.c       ****     //        menu.borderColor   = 0x6d;
 923:snake.c       ****     //        menu.headerColor   = 0;
 924:snake.c       ****     //        menu.choicesColor  = 0xfd;
 925:snake.c       ****     //        menu.selectedColor = 0xe0;
ARM GAS  /cygdrive/c/DOCUME~1/witaj/USTAWI~1/Temp/ccGe29Ta.s 			page 20


 926:snake.c       **** 
 927:snake.c       ****     //        switch(drawMenu(menu))
 928:snake.c       ****     //        {
 929:snake.c       ****     //          case 0: gameStatus = GAME_RUNNING; setupGame(TRUE); break;  //Restart game
 930:snake.c       ****     //          case 1: gameStatus = GAME_END; break;                       //End game
 931:snake.c       ****     //          default: break;
 932:snake.c       ****     //        }
 933:snake.c       ****     //      }
 934:snake.c       ****     //        break;
 935:snake.c       **** 
 936:snake.c       ****     //      default:
 937:snake.c       ****     //        gameStatus = GAME_END;
 938:snake.c       ****     //        break;
 939:snake.c       ****     //    }
 940:snake.c       ****     //  }
 941:snake.c       **** }
 942:snake.c       **** 
 943:snake.c       **** void
 944:snake.c       **** sendScore(tU8 *memblock, int rozmiar)
 945:snake.c       **** {
 155              		.loc 1 945 0
 156 009c F0B5     		push	{r4, r5, r6, r7, lr}
 157              	.LCFI1:
 158              	.LVL3:
 159 009e 86B0     		sub	sp, sp, #24
 160              	.LCFI2:
 161              		.loc 1 945 0
 162 00a0 0190     		str	r0, [sp, #4]
 163 00a2 0091     		str	r1, [sp]
 946:snake.c       ****     tU8 i;
 947:snake.c       ****     //Wyliczenie liczby pakietow
 948:snake.c       ****     int liczba_pakietow = rozmiar / 16;
 164              		.loc 1 948 0
 165 00a4 0B1C     		mov	r3, r1
 166 00a6 0029     		cmp	r1, #0
 167 00a8 00DA     		bge	.L14
 168              	.LVL4:
 169 00aa 0F33     		add	r3, r3, #15
 170              	.L14:
 171 00ac 1B11     		asr	r3, r3, #4
 949:snake.c       ****     if (liczba_pakietow * 16 != rozmiar)
 172              		.loc 1 949 0
 173 00ae 0099     		ldr	r1, [sp]
 174              	.LVL5:
 175              		.loc 1 948 0
 176 00b0 0393     		str	r3, [sp, #12]
 177              	.LVL6:
 178              		.loc 1 949 0
 179 00b2 1B01     		lsl	r3, r3, #4
 180 00b4 8B42     		cmp	r3, r1
 181 00b6 02D0     		beq	.L15
 950:snake.c       ****     {
 951:snake.c       ****         liczba_pakietow++;
 182              		.loc 1 951 0
 183 00b8 039A     		ldr	r2, [sp, #12]
 184 00ba 0132     		add	r2, r2, #1
 185 00bc 0392     		str	r2, [sp, #12]
ARM GAS  /cygdrive/c/DOCUME~1/witaj/USTAWI~1/Temp/ccGe29Ta.s 			page 21


 186              	.L15:
 187 00be 0024     		mov	r4, #0
 188              	.LVL7:
 189              	.L17:
 190              	.LBB6:
 952:snake.c       ****     }
 953:snake.c       **** 
 954:snake.c       ****     //Sprawdzenie czy odbiornik jest gotowy do przyjecia pliku, tj. czy wyslany jest sygnal NAK
 955:snake.c       ****     tU8 brak_odpowiedzi = TRUE;
 956:snake.c       ****     for (i = 0; i < 20; i++)
 957:snake.c       ****     {
 958:snake.c       ****         tU8 sprawdz = uart1GetCh();
 191              		.loc 1 958 0
 192 00c0 FFF7FEFF 		bl	uart1GetCh
 959:snake.c       ****         if(sprawdz == NAK)
 193              		.loc 1 959 0
 194 00c4 0006     		lsl	r0, r0, #24
 195 00c6 000E     		lsr	r0, r0, #24
 196 00c8 1528     		cmp	r0, #21
 197 00ca 42D0     		beq	.L36
 960:snake.c       ****         {
 961:snake.c       ****             brak_odpowiedzi = FALSE;
 962:snake.c       ****             break;
 963:snake.c       ****         }
 964:snake.c       ****         else
 965:snake.c       ****         {
 966:snake.c       ****             osSleep(10);
 198              		.loc 1 966 0
 199 00cc 0A20     		mov	r0, #10
 200 00ce FFF7FEFF 		bl	osSleep
 201              	.LBE6:
 202              		.loc 1 956 0
 203 00d2 631C     		add	r3, r4, #1
 204 00d4 1B06     		lsl	r3, r3, #24
 205 00d6 1C0E     		lsr	r4, r3, #24
 206 00d8 142C     		cmp	r4, #20
 207 00da 58D0     		beq	.L43
 208 00dc F0E7     		b	.L17
 209              	.LVL8:
 210              	.L22:
 211              	.LBB7:
 212              	.LBB8:
 967:snake.c       ****         }
 968:snake.c       ****     }
 969:snake.c       ****     if(brak_odpowiedzi)
 970:snake.c       ****     {
 971:snake.c       ****         setLED(2, 1);
 972:snake.c       ****     }
 973:snake.c       ****     else
 974:snake.c       ****     {
 975:snake.c       ****         tU8 nr_pakietu = 1;
 976:snake.c       ****         tU8 zmienna;
 977:snake.c       ****         tU8 naglowek[3];
 978:snake.c       ****         tU8 checksum;
 979:snake.c       ****         for (i = 0; i < liczba_pakietow; )
 980:snake.c       ****         {
 981:snake.c       ****             checksum = 0;
ARM GAS  /cygdrive/c/DOCUME~1/witaj/USTAWI~1/Temp/ccGe29Ta.s 			page 22


 982:snake.c       ****             naglowek[0] = SOH;
 983:snake.c       ****             naglowek[1] = nr_pakietu;
 984:snake.c       ****             naglowek[2] = 255 - nr_pakietu;
 985:snake.c       **** 
 986:snake.c       ****             uart1SendChar(naglowek[0]);
 213              		.loc 1 986 0
 214 00de 0120     		mov	r0, #1
 215 00e0 FFF7FEFF 		bl	uart1SendChar
 987:snake.c       ****             uart1SendChar(naglowek[1]);
 216              		.loc 1 987 0
 217 00e4 0498     		ldr	r0, [sp, #16]
 218 00e6 FFF7FEFF 		bl	uart1SendChar
 988:snake.c       ****             uart1SendChar(naglowek[2]);
 219              		.loc 1 988 0
 220 00ea 049B     		ldr	r3, [sp, #16]
 221 00ec D843     		mvn	r0, r3
 222 00ee 0006     		lsl	r0, r0, #24
 223 00f0 000E     		lsr	r0, r0, #24
 224 00f2 FFF7FEFF 		bl	uart1SendChar
 989:snake.c       ****             tU8 j;
 990:snake.c       ****             for(j = 0; j < 16; j++)
 991:snake.c       ****             {
 992:snake.c       ****                 if(((nr_pakietu - 1) * 16 + j) < rozmiar)
 225              		.loc 1 992 0
 226 00f6 0499     		ldr	r1, [sp, #16]
 227 00f8 0A01     		lsl	r2, r1, #4
 228 00fa 0199     		ldr	r1, [sp, #4]
 229 00fc 5318     		add	r3, r2, r1
 230 00fe 1C1C     		mov	r4, r3
 231              	.LVL9:
 232 0100 151C     		mov	r5, r2
 233 0102 0026     		mov	r6, #0
 234 0104 0027     		mov	r7, #0
 235 0106 103C     		sub	r4, r4, #16
 236 0108 103D     		sub	r5, r5, #16
 237              	.L23:
 238 010a 009A     		ldr	r2, [sp]
 239 010c 9542     		cmp	r5, r2
 240 010e 05DA     		bge	.L24
 993:snake.c       ****                 {
 994:snake.c       ****                     uart1SendChar(memblock[(nr_pakietu - 1) * 16 + j]);
 241              		.loc 1 994 0
 242 0110 2078     		ldrb	r0, [r4]
 243 0112 FFF7FEFF 		bl	uart1SendChar
 995:snake.c       ****                     checksum += memblock[(nr_pakietu - 1) * 16 + j];
 244              		.loc 1 995 0
 245 0116 2378     		ldrb	r3, [r4]
 246 0118 F318     		add	r3, r6, r3
 247 011a 04E0     		b	.L47
 248              	.L24:
 996:snake.c       ****                 }
 997:snake.c       ****                 else
 998:snake.c       ****                 {
 999:snake.c       ****                     uart1SendChar(26);
 249              		.loc 1 999 0
 250 011c 1A20     		mov	r0, #26
 251 011e FFF7FEFF 		bl	uart1SendChar
ARM GAS  /cygdrive/c/DOCUME~1/witaj/USTAWI~1/Temp/ccGe29Ta.s 			page 23


1000:snake.c       ****                     checksum += 26;
 252              		.loc 1 1000 0
 253 0122 331C     		mov	r3, r6
 254 0124 1A33     		add	r3, r3, #26
 255              	.L47:
 256 0126 1B06     		lsl	r3, r3, #24
 257 0128 0137     		add	r7, r7, #1
 258 012a 1E0E     		lsr	r6, r3, #24
 259 012c 0135     		add	r5, r5, #1
 260 012e 0134     		add	r4, r4, #1
 261              		.loc 1 990 0
 262 0130 102F     		cmp	r7, #16
 263 0132 EAD1     		bne	.L23
1001:snake.c       ****                 }
1002:snake.c       ****             }
1003:snake.c       **** 
1004:snake.c       ****             uart1SendChar(checksum);
 264              		.loc 1 1004 0
 265 0134 301C     		mov	r0, r6
 266 0136 FFF7FEFF 		bl	uart1SendChar
 267 013a 04E0     		b	.L28
 268              	.L29:
1005:snake.c       **** 
1006:snake.c       ****             while(zmienna != ACK && zmienna != NAK)
1007:snake.c       ****             {
1008:snake.c       ****                 zmienna = uart1GetCh();
 269              		.loc 1 1008 0
 270 013c FFF7FEFF 		bl	uart1GetCh
 271 0140 0006     		lsl	r0, r0, #24
 272 0142 000E     		lsr	r0, r0, #24
 273 0144 0590     		str	r0, [sp, #20]
 274              	.L28:
 275              		.loc 1 1006 0
 276 0146 059B     		ldr	r3, [sp, #20]
 277 0148 062B     		cmp	r3, #6
 278 014a 07D0     		beq	.L30
 279 014c 152B     		cmp	r3, #21
 280 014e F5D1     		bne	.L29
 281 0150 0EE0     		b	.L48
 282              	.LVL10:
 283              	.L36:
 284              	.LBE8:
 285              	.LBE7:
 286              	.LBB9:
 287              		.loc 1 959 0
 288 0152 0121     		mov	r1, #1
 289 0154 0022     		mov	r2, #0
 290 0156 0491     		str	r1, [sp, #16]
 291              	.LVL11:
 292 0158 0292     		str	r2, [sp, #8]
 293              	.LVL12:
 294 015a 09E0     		b	.L48
 295              	.LVL13:
 296              	.L30:
 297              	.LBE9:
 298              	.LBB10:
 299              	.LBB11:
ARM GAS  /cygdrive/c/DOCUME~1/witaj/USTAWI~1/Temp/ccGe29Ta.s 			page 24


1009:snake.c       ****             }
1010:snake.c       ****             if(zmienna == ACK || zmienna == C)
1011:snake.c       ****             {
1012:snake.c       ****                 nr_pakietu++;
 300              		.loc 1 1012 0
 301 015c 049B     		ldr	r3, [sp, #16]
 302 015e 0133     		add	r3, r3, #1
 303 0160 1B06     		lsl	r3, r3, #24
 304 0162 1B0E     		lsr	r3, r3, #24
 305 0164 0493     		str	r3, [sp, #16]
1013:snake.c       ****                 i++;
 306              		.loc 1 1013 0
 307 0166 029B     		ldr	r3, [sp, #8]
 308 0168 0133     		add	r3, r3, #1
 309 016a 1B06     		lsl	r3, r3, #24
 310 016c 1B0E     		lsr	r3, r3, #24
 311 016e 0293     		str	r3, [sp, #8]
 312              	.LVL14:
 313              	.L48:
 314              	.LBE11:
 315              		.loc 1 979 0
 316 0170 029B     		ldr	r3, [sp, #8]
 317 0172 0399     		ldr	r1, [sp, #12]
 318 0174 8B42     		cmp	r3, r1
 319 0176 B2DB     		blt	.L22
 320              	.L39:
1014:snake.c       ****             }
1015:snake.c       ****         }
1016:snake.c       ****         do
1017:snake.c       ****         {
1018:snake.c       ****             uart1SendChar(EOT);
 321              		.loc 1 1018 0
 322 0178 0420     		mov	r0, #4
 323 017a FFF7FEFF 		bl	uart1SendChar
1019:snake.c       ****             osSleep(100);
 324              		.loc 1 1019 0
 325 017e 6420     		mov	r0, #100
 326 0180 FFF7FEFF 		bl	osSleep
1020:snake.c       ****         }while(uart1GetCh() != ACK);
 327              		.loc 1 1020 0
 328 0184 FFF7FEFF 		bl	uart1GetCh
 329 0188 0628     		cmp	r0, #6
 330 018a 04D0     		beq	.L34
 331 018c F4E7     		b	.L39
 332              	.LVL15:
 333              	.L43:
 334              	.LBE10:
 335              		.loc 1 971 0
 336 018e 0220     		mov	r0, #2
 337 0190 0121     		mov	r1, #1
 338 0192 FFF7FEFF 		bl	setLED
 339              	.LVL16:
 340              	.L34:
1021:snake.c       ****     }
1022:snake.c       **** }
 341              		.loc 1 1022 0
 342 0196 06B0     		add	sp, sp, #24
ARM GAS  /cygdrive/c/DOCUME~1/witaj/USTAWI~1/Temp/ccGe29Ta.s 			page 25


 343              		@ sp needed for prologue
 344              	.LVL17:
 345              	.LVL18:
 346 0198 F0BC     		pop	{r4, r5, r6, r7}
 347 019a 01BC     		pop	{r0}
 348 019c 0047     		bx	r0
 349              	.LFE19:
 350              		.size	sendScore, .-sendScore
 351 019e 0000     		.align	2
 352              		.code 16
 353              		.thumb_func
 354              		.type	putSnack, %function
 355              	putSnack:
 356              	.LFB13:
 357              		.loc 1 690 0
 358 01a0 10B5     		push	{r4, lr}
 359              	.LCFI3:
 360              	.L50:
 361              		.loc 1 694 0
 362 01a2 FFF7FEFF 		bl	rand
 363 01a6 041C     		mov	r4, r0
 364              		.loc 1 695 0
 365 01a8 FFF7FEFF 		bl	rand
 366              		.loc 1 696 0
 367 01ac 104A     		ldr	r2, .L57
 368 01ae 1440     		and	r4, r4, r2
 369 01b0 002C     		cmp	r4, #0
 370 01b2 04DA     		bge	.L51
 371 01b4 2023     		mov	r3, #32
 372 01b6 013C     		sub	r4, r4, #1
 373 01b8 5B42     		neg	r3, r3
 374 01ba 1C43     		orr	r4, r4, r3
 375 01bc 0134     		add	r4, r4, #1
 376              	.L51:
 377 01be 2306     		lsl	r3, r4, #24
 378 01c0 1040     		and	r0, r0, r2
 379 01c2 1C0E     		lsr	r4, r3, #24
 380 01c4 0028     		cmp	r0, #0
 381 01c6 04DA     		bge	.L52
 382 01c8 2023     		mov	r3, #32
 383 01ca 0138     		sub	r0, r0, #1
 384 01cc 5B42     		neg	r3, r3
 385 01ce 1843     		orr	r0, r0, r3
 386 01d0 0130     		add	r0, r0, #1
 387              	.L52:
 388 01d2 0306     		lsl	r3, r0, #24
 389 01d4 074A     		ldr	r2, .L57+4
 390 01d6 180E     		lsr	r0, r3, #24
 391 01d8 6301     		lsl	r3, r4, #5
 392 01da 9C18     		add	r4, r3, r2
 393 01dc 235C     		ldrb	r3, [r4, r0]
 394 01de 002B     		cmp	r3, #0
 395 01e0 DFD1     		bne	.L50
 396              		.loc 1 699 0
 397 01e2 7323     		mov	r3, #115
 398 01e4 5B42     		neg	r3, r3
 399 01e6 2354     		strb	r3, [r4, r0]
ARM GAS  /cygdrive/c/DOCUME~1/witaj/USTAWI~1/Temp/ccGe29Ta.s 			page 26


 400              		.loc 1 702 0
 401              		@ sp needed for prologue
 402 01e8 10BC     		pop	{r4}
 403 01ea 01BC     		pop	{r0}
 404 01ec 0047     		bx	r0
 405              	.L58:
 406 01ee 0000     		.align	2
 407              	.L57:
 408 01f0 1F000080 		.word	-2147483617
 409 01f4 18000000 		.word	gameArena
 410              	.LFE13:
 411              		.size	putSnack, .-putSnack
 412              		.align	2
 413              		.code 16
 414              		.thumb_func
 415              		.type	eatNoise, %function
 416              	eatNoise:
 417              	.LFB3:
 418              		.loc 1 504 0
 419 01f8 F0B5     		push	{r4, r5, r6, r7, lr}
 420              	.LCFI4:
 421              		.loc 1 505 0
 422 01fa 284C     		ldr	r4, .L68
 423 01fc 2368     		ldr	r3, [r4]
 424 01fe 0020     		mov	r0, #0
 425 0200 002B     		cmp	r3, #0
 426 0202 00D0     		beq	.L60
 427 0204 0120     		mov	r0, #1
 428              	.L60:
 429 0206 FFF7FEFF 		bl	setBuzzer
 430              		.loc 1 508 0
 431 020a 254E     		ldr	r6, .L68+4
 432              		.loc 1 507 0
 433 020c 2368     		ldr	r3, [r4]
 434              		.loc 1 508 0
 435 020e 3168     		ldr	r1, [r6]
 436              		.loc 1 510 0
 437 0210 244D     		ldr	r5, .L68+8
 438              		.loc 1 507 0
 439 0212 DB43     		mvn	r3, r3
 440              		.loc 1 508 0
 441 0214 0131     		add	r1, r1, #1
 442              		.loc 1 510 0
 443 0216 2868     		ldr	r0, [r5]
 444              		.loc 1 507 0
 445 0218 2360     		str	r3, [r4]
 446              		.loc 1 508 0
 447 021a 3160     		str	r1, [r6]
 448              		.loc 1 510 0
 449 021c 224F     		ldr	r7, .L68+12
 450 021e 4300     		lsl	r3, r0, #1
 451 0220 DA5B     		ldrh	r2, [r3, r7]
 452 0222 9300     		lsl	r3, r2, #2
 453 0224 9B18     		add	r3, r3, r2
 454 0226 5B00     		lsl	r3, r3, #1
 455 0228 9942     		cmp	r1, r3
 456 022a 2DD1     		bne	.L61
ARM GAS  /cygdrive/c/DOCUME~1/witaj/USTAWI~1/Temp/ccGe29Ta.s 			page 27


 457              		.loc 1 512 0
 458 022c 0228     		cmp	r0, #2
 459 022e 01DC     		bgt	.L63
 460              		.loc 1 513 0
 461 0230 431C     		add	r3, r0, #1
 462 0232 2B60     		str	r3, [r5]
 463              	.L63:
 464              		.loc 1 514 0
 465 0234 2B68     		ldr	r3, [r5]
 466 0236 032B     		cmp	r3, #3
 467 0238 0FD1     		bne	.L65
 468              		.loc 1 516 0
 469 023a 1C4A     		ldr	r2, .L68+16
 470 023c 0623     		mov	r3, #6
 471 023e 1360     		str	r3, [r2]
 472              		.loc 1 517 0
 473 0240 0020     		mov	r0, #0
 474 0242 FFF7FEFF 		bl	setBuzzer
 475              		.loc 1 518 0
 476 0246 0021     		mov	r1, #0
 477 0248 0020     		mov	r0, #0
 478 024a FFF7FEFF 		bl	setLED
 479              		.loc 1 519 0
 480 024e 0120     		mov	r0, #1
 481 0250 0021     		mov	r1, #0
 482 0252 FFF7FEFF 		bl	setLED
 483              		.loc 1 520 0
 484 0256 0023     		mov	r3, #0
 485 0258 2B60     		str	r3, [r5]
 486              	.L65:
 487              		.loc 1 522 0
 488 025a 154C     		ldr	r4, .L68+20
 489 025c 0223     		mov	r3, #2
 490 025e 2360     		str	r3, [r4]
 491              		.loc 1 523 0
 492 0260 2B68     		ldr	r3, [r5]
 493 0262 5B00     		lsl	r3, r3, #1
 494 0264 D95B     		ldrh	r1, [r3, r7]
 495 0266 134B     		ldr	r3, .L68+24
 496 0268 1A78     		ldrb	r2, [r3]
 497 026a 1301     		lsl	r3, r2, #4
 498 026c 9B1A     		sub	r3, r3, r2
 499 026e C918     		add	r1, r1, r3
 500 0270 E120     		mov	r0, #225
 501 0272 6423     		mov	r3, #100
 502 0274 5943     		mul	r1, r3
 503 0276 8004     		lsl	r0, r0, #18
 504 0278 FFF7FEFF 		bl	__divsi3
 505 027c 0E4B     		ldr	r3, .L68+28
 506 027e 1860     		str	r0, [r3]
 507              		.loc 1 524 0
 508 0280 0123     		mov	r3, #1
 509 0282 2360     		str	r3, [r4]
 510              		.loc 1 525 0
 511 0284 0023     		mov	r3, #0
 512 0286 3360     		str	r3, [r6]
 513              	.L61:
ARM GAS  /cygdrive/c/DOCUME~1/witaj/USTAWI~1/Temp/ccGe29Ta.s 			page 28


 514              		.loc 1 528 0
 515 0288 0C4B     		ldr	r3, .L68+32
 516 028a FF22     		mov	r2, #255
 517 028c 1A60     		str	r2, [r3]
 518              		.loc 1 529 0
 519 028e 0C4B     		ldr	r3, .L68+36
 520 0290 0022     		mov	r2, #0
 521 0292 1A60     		str	r2, [r3]
 522              		.loc 1 530 0
 523              		@ sp needed for prologue
 524 0294 F0BC     		pop	{r4, r5, r6, r7}
 525 0296 01BC     		pop	{r0}
 526 0298 0047     		bx	r0
 527              	.L69:
 528 029a 0000     		.align	2
 529              	.L68:
 530 029c 00000000 		.word	toggle
 531 02a0 00000000 		.word	count
 532 02a4 00000000 		.word	note
 533 02a8 00000000 		.word	notes
 534 02ac 148000E0 		.word	-536838124
 535 02b0 048000E0 		.word	-536838140
 536 02b4 0E000000 		.word	snakeSize
 537 02b8 188000E0 		.word	-536838120
 538 02bc 008000E0 		.word	-536838144
 539 02c0 30F0FFFF 		.word	-4048
 540              	.LFE3:
 541              		.size	eatNoise, .-eatNoise
 542              		.align	2
 543              		.code 16
 544              		.thumb_func
 545              		.type	startMusic, %function
 546              	startMusic:
 547              	.LFB2:
 548              		.loc 1 474 0
 549 02c4 F0B5     		push	{r4, r5, r6, r7, lr}
 550              	.LCFI5:
 551              		.loc 1 475 0
 552 02c6 264C     		ldr	r4, .L79
 553 02c8 2368     		ldr	r3, [r4]
 554 02ca 0020     		mov	r0, #0
 555 02cc 002B     		cmp	r3, #0
 556 02ce 00D0     		beq	.L71
 557 02d0 0120     		mov	r0, #1
 558              	.L71:
 559 02d2 FFF7FEFF 		bl	setBuzzer
 560              		.loc 1 478 0
 561 02d6 234E     		ldr	r6, .L79+4
 562              		.loc 1 477 0
 563 02d8 2368     		ldr	r3, [r4]
 564              		.loc 1 478 0
 565 02da 3168     		ldr	r1, [r6]
 566              		.loc 1 480 0
 567 02dc 224D     		ldr	r5, .L79+8
 568              		.loc 1 477 0
 569 02de DB43     		mvn	r3, r3
 570              		.loc 1 478 0
ARM GAS  /cygdrive/c/DOCUME~1/witaj/USTAWI~1/Temp/ccGe29Ta.s 			page 29


 571 02e0 0131     		add	r1, r1, #1
 572              		.loc 1 480 0
 573 02e2 2868     		ldr	r0, [r5]
 574              		.loc 1 477 0
 575 02e4 2360     		str	r3, [r4]
 576              		.loc 1 478 0
 577 02e6 3160     		str	r1, [r6]
 578              		.loc 1 480 0
 579 02e8 204F     		ldr	r7, .L79+12
 580 02ea 4300     		lsl	r3, r0, #1
 581 02ec DA5B     		ldrh	r2, [r3, r7]
 582 02ee 9300     		lsl	r3, r2, #2
 583 02f0 9B18     		add	r3, r3, r2
 584 02f2 5B00     		lsl	r3, r3, #1
 585 02f4 9942     		cmp	r1, r3
 586 02f6 29D1     		bne	.L72
 587              		.loc 1 482 0
 588 02f8 0728     		cmp	r0, #7
 589 02fa 01DC     		bgt	.L74
 590              		.loc 1 483 0
 591 02fc 431C     		add	r3, r0, #1
 592 02fe 2B60     		str	r3, [r5]
 593              	.L74:
 594              		.loc 1 484 0
 595 0300 2B68     		ldr	r3, [r5]
 596 0302 082B     		cmp	r3, #8
 597 0304 0FD1     		bne	.L76
 598              		.loc 1 486 0
 599 0306 1A4A     		ldr	r2, .L79+16
 600 0308 0623     		mov	r3, #6
 601 030a 1360     		str	r3, [r2]
 602              		.loc 1 487 0
 603 030c 0020     		mov	r0, #0
 604 030e FFF7FEFF 		bl	setBuzzer
 605              		.loc 1 488 0
 606 0312 0021     		mov	r1, #0
 607 0314 0020     		mov	r0, #0
 608 0316 FFF7FEFF 		bl	setLED
 609              		.loc 1 489 0
 610 031a 0120     		mov	r0, #1
 611 031c 0021     		mov	r1, #0
 612 031e FFF7FEFF 		bl	setLED
 613              		.loc 1 490 0
 614 0322 0023     		mov	r3, #0
 615 0324 2B60     		str	r3, [r5]
 616              	.L76:
 617              		.loc 1 492 0
 618 0326 134C     		ldr	r4, .L79+20
 619 0328 0223     		mov	r3, #2
 620 032a 2360     		str	r3, [r4]
 621              		.loc 1 493 0
 622 032c 2B68     		ldr	r3, [r5]
 623 032e 5B00     		lsl	r3, r3, #1
 624 0330 DA5B     		ldrh	r2, [r3, r7]
 625 0332 E120     		mov	r0, #225
 626 0334 6423     		mov	r3, #100
 627 0336 111C     		mov	r1, r2
ARM GAS  /cygdrive/c/DOCUME~1/witaj/USTAWI~1/Temp/ccGe29Ta.s 			page 30


 628 0338 5943     		mul	r1, r3
 629 033a 8004     		lsl	r0, r0, #18
 630 033c FFF7FEFF 		bl	__divsi3
 631 0340 0D4B     		ldr	r3, .L79+24
 632 0342 1860     		str	r0, [r3]
 633              		.loc 1 494 0
 634 0344 0123     		mov	r3, #1
 635 0346 2360     		str	r3, [r4]
 636              		.loc 1 495 0
 637 0348 0023     		mov	r3, #0
 638 034a 3360     		str	r3, [r6]
 639              	.L72:
 640              		.loc 1 498 0
 641 034c 0B4B     		ldr	r3, .L79+28
 642 034e FF22     		mov	r2, #255
 643 0350 1A60     		str	r2, [r3]
 644              		.loc 1 499 0
 645 0352 0B4B     		ldr	r3, .L79+32
 646 0354 0022     		mov	r2, #0
 647 0356 1A60     		str	r2, [r3]
 648              		.loc 1 500 0
 649              		@ sp needed for prologue
 650 0358 F0BC     		pop	{r4, r5, r6, r7}
 651 035a 01BC     		pop	{r0}
 652 035c 0047     		bx	r0
 653              	.L80:
 654 035e 0000     		.align	2
 655              	.L79:
 656 0360 00000000 		.word	toggle
 657 0364 00000000 		.word	count
 658 0368 00000000 		.word	note
 659 036c 00000000 		.word	notes
 660 0370 148000E0 		.word	-536838124
 661 0374 048000E0 		.word	-536838140
 662 0378 188000E0 		.word	-536838120
 663 037c 008000E0 		.word	-536838144
 664 0380 30F0FFFF 		.word	-4048
 665              	.LFE2:
 666              		.size	startMusic, .-startMusic
 667              		.global	__umodsi3
 668              		.global	__modsi3
 669              		.align	2
 670              		.code 16
 671              		.thumb_func
 672              		.type	resetSnake, %function
 673              	resetSnake:
 674              	.LFB10:
 675              		.loc 1 599 0
 676 0384 F0B5     		push	{r4, r5, r6, r7, lr}
 677              	.LCFI6:
 678              		.loc 1 600 0
 679 0386 164B     		ldr	r3, .L87
 680 0388 1C78     		ldrb	r4, [r3]
 681              	.LVL19:
 682              		.loc 1 602 0
 683 038a 164B     		ldr	r3, .L87+4
 684 038c 1D78     		ldrb	r5, [r3]
ARM GAS  /cygdrive/c/DOCUME~1/witaj/USTAWI~1/Temp/ccGe29Ta.s 			page 31


 685 038e AB1D     		add	r3, r5, #6
 686              		.loc 1 599 0
 687 0390 82B0     		sub	sp, sp, #8
 688              	.LCFI7:
 689              		.loc 1 602 0
 690 0392 9B08     		lsr	r3, r3, #2
 691              		.loc 1 599 0
 692 0394 00AF     		add	r7, sp, #0
 693              	.LCFI8:
 694              		.loc 1 599 0
 695 0396 6A46     		mov	r2, sp
 696              		.loc 1 602 0
 697 0398 9B00     		lsl	r3, r3, #2
 698              		.loc 1 599 0
 699 039a 7A60     		str	r2, [r7, #4]
 700              		.loc 1 602 0
 701 039c D21A     		sub	r2, r2, r3
 702 039e 9546     		mov	sp, r2
 703 03a0 6B46     		mov	r3, sp
 704              		.loc 1 613 0
 705 03a2 201C     		mov	r0, r4
 706 03a4 291C     		mov	r1, r5
 707              		.loc 1 602 0
 708 03a6 3B60     		str	r3, [r7]
 709              		.loc 1 613 0
 710 03a8 FFF7FEFF 		bl	__umodsi3
 711 03ac 0006     		lsl	r0, r0, #24
 712 03ae 060E     		lsr	r6, r0, #24
 713              	.L82:
 714              		.loc 1 611 0
 715 03b0 3A68     		ldr	r2, [r7]
 716 03b2 2B1B     		sub	r3, r5, r4
 717 03b4 9B18     		add	r3, r3, r2
 718 03b6 0C4A     		ldr	r2, .L87+8
 719 03b8 125D     		ldrb	r2, [r2, r4]
 720 03ba 013B     		sub	r3, r3, #1
 721              		.loc 1 612 0
 722 03bc 601C     		add	r0, r4, #1
 723              		.loc 1 611 0
 724 03be 1A70     		strb	r2, [r3]
 725              		.loc 1 612 0
 726 03c0 291C     		mov	r1, r5
 727 03c2 FFF7FEFF 		bl	__modsi3
 728 03c6 041C     		mov	r4, r0
 729              		.loc 1 613 0
 730 03c8 B042     		cmp	r0, r6
 731 03ca F1D1     		bne	.L82
 732              	.LVL20:
 733              		.loc 1 614 0
 734 03cc 044A     		ldr	r2, .L87
 735 03ce 6B1E     		sub	r3, r5, #1
 736 03d0 1370     		strb	r3, [r2]
 737 03d2 7B68     		ldr	r3, [r7, #4]
 738 03d4 9D46     		mov	sp, r3
 739              		.loc 1 615 0
 740 03d6 BD46     		mov	sp, r7
 741 03d8 02B0     		add	sp, sp, #8
ARM GAS  /cygdrive/c/DOCUME~1/witaj/USTAWI~1/Temp/ccGe29Ta.s 			page 32


 742              		@ sp needed for prologue
 743 03da F0BC     		pop	{r4, r5, r6, r7}
 744 03dc 01BC     		pop	{r0}
 745 03de 0047     		bx	r0
 746              	.L88:
 747              		.align	2
 748              	.L87:
 749 03e0 58040000 		.word	snakeTailGuard
 750 03e4 0E000000 		.word	snakeSize
 751 03e8 18040000 		.word	snakeTail
 752              	.LFE10:
 753              		.size	resetSnake, .-resetSnake
 754              		.align	2
 755              		.code 16
 756              		.thumb_func
 757              		.type	moveField, %function
 758              	moveField:
 759              	.LFB12:
 760              		.loc 1 635 0
 761 03ec F0B5     		push	{r4, r5, r6, r7, lr}
 762              	.LCFI9:
 763              	.LVL21:
 764 03ee 0006     		lsl	r0, r0, #24
 765              	.LVL22:
 766 03f0 0906     		lsl	r1, r1, #24
 767              	.LVL23:
 768 03f2 1206     		lsl	r2, r2, #24
 769              	.LVL24:
 770 03f4 84B0     		sub	sp, sp, #16
 771              	.LCFI10:
 772              		.loc 1 635 0
 773 03f6 090E     		lsr	r1, r1, #24
 774              	.LVL25:
 775              		.loc 1 636 0
 776 03f8 000E     		lsr	r0, r0, #24
 777              		.loc 1 635 0
 778 03fa 170E     		lsr	r7, r2, #24
 779              	.LVL26:
 780              		.loc 1 636 0
 781 03fc 0090     		str	r0, [sp]
 782              	.LVL27:
 783              		.loc 1 637 0
 784 03fe 0191     		str	r1, [sp, #4]
 785              	.LVL28:
 786              		.loc 1 639 0
 787 0400 022F     		cmp	r7, #2
 788 0402 0ED0     		beq	.L92
 789 0404 022F     		cmp	r7, #2
 790 0406 02D8     		bhi	.L95
 791 0408 012F     		cmp	r7, #1
 792 040a 74D1     		bne	.L110
 793 040c 04E0     		b	.L91
 794              	.L95:
 795 040e 032F     		cmp	r7, #3
 796 0410 0BD0     		beq	.L93
 797 0412 042F     		cmp	r7, #4
 798 0414 6FD1     		bne	.L110
ARM GAS  /cygdrive/c/DOCUME~1/witaj/USTAWI~1/Temp/ccGe29Ta.s 			page 33


 799 0416 01E0     		b	.L94
 800              	.L91:
 801              		.loc 1 642 0
 802 0418 0131     		add	r1, r1, #1
 803              	.LVL29:
 804 041a 00E0     		b	.L113
 805              	.LVL30:
 806              	.L94:
 807              		.loc 1 645 0
 808 041c 0139     		sub	r1, r1, #1
 809              	.LVL31:
 810              	.L113:
 811 041e 0191     		str	r1, [sp, #4]
 812 0420 06E0     		b	.L96
 813              	.LVL32:
 814              	.L92:
 815              		.loc 1 648 0
 816 0422 0098     		ldr	r0, [sp]
 817 0424 0138     		sub	r0, r0, #1
 818 0426 0090     		str	r0, [sp]
 819 0428 02E0     		b	.L96
 820              	.L93:
 821              		.loc 1 651 0
 822 042a 0099     		ldr	r1, [sp]
 823              	.LVL33:
 824 042c 0131     		add	r1, r1, #1
 825 042e 0091     		str	r1, [sp]
 826              	.LVL34:
 827              	.L96:
 828              	.LBB18:
 829              	.LBB19:
 830              		.loc 1 707 0
 831 0430 334B     		ldr	r3, .L116
 832 0432 1D78     		ldrb	r5, [r3]
 833              	.LVL35:
 834              		.loc 1 708 0
 835 0434 334B     		ldr	r3, .L116+4
 836 0436 1E78     		ldrb	r6, [r3]
 837              	.LVL36:
 838              		.loc 1 709 0
 839 0438 334B     		ldr	r3, .L116+8
 840 043a 1B78     		ldrb	r3, [r3]
 841 043c 0393     		str	r3, [sp, #12]
 842              	.LVL37:
 843              		.loc 1 729 0
 844 043e 334B     		ldr	r3, .L116+12
 845 0440 1B78     		ldrb	r3, [r3]
 846 0442 039C     		ldr	r4, [sp, #12]
 847              	.LVL38:
 848 0444 0293     		str	r3, [sp, #8]
 849              	.L97:
 850              		.loc 1 712 0
 851 0446 324B     		ldr	r3, .L116+16
 852 0448 1B5D     		ldrb	r3, [r3, r4]
 853 044a 022B     		cmp	r3, #2
 854 044c 0FD0     		beq	.L100
 855 044e 022B     		cmp	r3, #2
ARM GAS  /cygdrive/c/DOCUME~1/witaj/USTAWI~1/Temp/ccGe29Ta.s 			page 34


 856 0450 02D8     		bhi	.L103
 857 0452 012B     		cmp	r3, #1
 858 0454 23D1     		bne	.L98
 859 0456 04E0     		b	.L99
 860              	.L103:
 861 0458 032B     		cmp	r3, #3
 862 045a 0AD0     		beq	.L101
 863 045c 042B     		cmp	r3, #4
 864 045e 1ED1     		bne	.L98
 865 0460 01E0     		b	.L102
 866              	.L99:
 867              		.loc 1 715 0
 868 0462 731E     		sub	r3, r6, #1
 869 0464 00E0     		b	.L114
 870              	.L102:
 871              		.loc 1 718 0
 872 0466 731C     		add	r3, r6, #1
 873              	.L114:
 874 0468 1B06     		lsl	r3, r3, #24
 875 046a 1E0E     		lsr	r6, r3, #24
 876 046c 04E0     		b	.L104
 877              	.L100:
 878              		.loc 1 721 0
 879 046e 6B1C     		add	r3, r5, #1
 880 0470 00E0     		b	.L115
 881              	.L101:
 882              		.loc 1 724 0
 883 0472 6B1E     		sub	r3, r5, #1
 884              	.L115:
 885 0474 1B06     		lsl	r3, r3, #24
 886 0476 1D0E     		lsr	r5, r3, #24
 887              	.L104:
 888              		.loc 1 729 0
 889 0478 601C     		add	r0, r4, #1
 890 047a 0299     		ldr	r1, [sp, #8]
 891              	.LVL39:
 892 047c FFF7FEFF 		bl	__modsi3
 893 0480 0006     		lsl	r0, r0, #24
 894 0482 040E     		lsr	r4, r0, #24
 895              		.loc 1 730 0
 896 0484 0299     		ldr	r1, [sp, #8]
 897 0486 0398     		ldr	r0, [sp, #12]
 898 0488 FFF7FEFF 		bl	__umodsi3
 899 048c 0006     		lsl	r0, r0, #24
 900 048e 000E     		lsr	r0, r0, #24
 901 0490 8442     		cmp	r4, r0
 902 0492 D8D1     		bne	.L97
 903              		.loc 1 732 0
 904 0494 1F4B     		ldr	r3, .L116+20
 905 0496 6A01     		lsl	r2, r5, #5
 906 0498 D218     		add	r2, r2, r3
 907 049a 0023     		mov	r3, #0
 908 049c 9355     		strb	r3, [r2, r6]
 909              	.LVL40:
 910              	.L98:
 911              	.LBE19:
 912              	.LBE18:
ARM GAS  /cygdrive/c/DOCUME~1/witaj/USTAWI~1/Temp/ccGe29Ta.s 			page 35


 913              		.loc 1 662 0
 914 049e 039A     		ldr	r2, [sp, #12]
 915 04a0 1B4B     		ldr	r3, .L116+16
 916              		.loc 1 663 0
 917 04a2 101C     		mov	r0, r2
 918              		.loc 1 662 0
 919 04a4 9F54     		strb	r7, [r3, r2]
 920              		.loc 1 663 0
 921 04a6 0299     		ldr	r1, [sp, #8]
 922              	.LVL41:
 923 04a8 0130     		add	r0, r0, #1
 924 04aa FFF7FEFF 		bl	__modsi3
 925 04ae 164C     		ldr	r4, .L116+8
 926              	.LVL42:
 927 04b0 2070     		strb	r0, [r4]
 928              		.loc 1 665 0
 929 04b2 0098     		ldr	r0, [sp]
 930 04b4 174A     		ldr	r2, .L116+20
 931 04b6 4301     		lsl	r3, r0, #5
 932 04b8 0199     		ldr	r1, [sp, #4]
 933 04ba 9B18     		add	r3, r3, r2
 934 04bc 5B5C     		ldrb	r3, [r3, r1]
 935 04be 5D2B     		cmp	r3, #93
 936 04c0 0FD0     		beq	.L106
 937              		.loc 1 669 0
 938 04c2 8D2B     		cmp	r3, #141
 939 04c4 0DD1     		bne	.L106
 940 04c6 029A     		ldr	r2, [sp, #8]
 941 04c8 3F2A     		cmp	r2, #63
 942 04ca 0AD8     		bhi	.L106
 943              	.LBB20:
 944              	.LBB21:
 945              		.loc 1 630 0
 946 04cc 1248     		ldr	r0, .L116+24
 947 04ce FFF797FD 		bl	initTimer1
 948              	.LBE21:
 949              	.LBE20:
 950              		.loc 1 675 0
 951 04d2 FFF757FF 		bl	resetSnake
 952              		.loc 1 676 0
 953 04d6 0D4A     		ldr	r2, .L116+12
 954 04d8 1378     		ldrb	r3, [r2]
 955 04da 0133     		add	r3, r3, #1
 956 04dc 1370     		strb	r3, [r2]
 957              		.loc 1 677 0
 958 04de FFF75FFE 		bl	putSnack
 959              	.L106:
 960              	.LBB22:
 961              	.LBB23:
 962              		.loc 1 594 0
 963 04e2 019B     		ldr	r3, [sp, #4]
 964 04e4 0098     		ldr	r0, [sp]
 965 04e6 0B4A     		ldr	r2, .L116+20
 966 04e8 1906     		lsl	r1, r3, #24
 967 04ea 0306     		lsl	r3, r0, #24
 968 04ec DB0C     		lsr	r3, r3, #19
 969 04ee 9B18     		add	r3, r3, r2
ARM GAS  /cygdrive/c/DOCUME~1/witaj/USTAWI~1/Temp/ccGe29Ta.s 			page 36


 970 04f0 090E     		lsr	r1, r1, #24
 971 04f2 5D22     		mov	r2, #93
 972 04f4 5A54     		strb	r2, [r3, r1]
 973              	.LVL43:
 974              	.L110:
 975              	.LBE23:
 976              	.LBE22:
 977              		.loc 1 686 0
 978 04f6 04B0     		add	sp, sp, #16
 979              		@ sp needed for prologue
 980              	.LVL44:
 981              	.LVL45:
 982              	.LVL46:
 983 04f8 F0BC     		pop	{r4, r5, r6, r7}
 984 04fa 01BC     		pop	{r0}
 985 04fc 0047     		bx	r0
 986              	.L117:
 987 04fe 0000     		.align	2
 988              	.L116:
 989 0500 0C000000 		.word	snakeXPos
 990 0504 0D000000 		.word	snakeYPos
 991 0508 58040000 		.word	snakeTailGuard
 992 050c 0E000000 		.word	snakeSize
 993 0510 18040000 		.word	snakeTail
 994 0514 18000000 		.word	gameArena
 995 0518 00000000 		.word	eatNoise
 996              	.LFE12:
 997              		.size	moveField, .-moveField
 998              		.align	2
 999              		.global	moveSnake
 1000              		.code 16
 1001              		.thumb_func
 1002              		.type	moveSnake, %function
 1003              	moveSnake:
 1004              	.LFB17:
 1005              		.loc 1 752 0
 1006 051c 10B5     		push	{r4, lr}
 1007              	.LCFI11:
 1008              	.LVL47:
 1009              		.loc 1 752 0
 1010 051e 0006     		lsl	r0, r0, #24
 1011              	.LVL48:
 1012 0520 000E     		lsr	r0, r0, #24
 1013              	.LVL49:
 1014              		.loc 1 753 0
 1015 0522 0128     		cmp	r0, #1
 1016 0524 07D1     		bne	.L119
 1017              		.loc 1 755 0
 1018 0526 294C     		ldr	r4, .L141
 1019 0528 2178     		ldrb	r1, [r4]
 1020 052a 0129     		cmp	r1, #1
 1021 052c 4AD0     		beq	.L136
 1022              		.loc 1 757 0
 1023 052e 284B     		ldr	r3, .L141+4
 1024 0530 1878     		ldrb	r0, [r3]
 1025              	.LVL50:
 1026 0532 0422     		mov	r2, #4
ARM GAS  /cygdrive/c/DOCUME~1/witaj/USTAWI~1/Temp/ccGe29Ta.s 			page 37


 1027 0534 21E0     		b	.L139
 1028              	.LVL51:
 1029              	.L119:
 1030              		.loc 1 761 0
 1031 0536 0428     		cmp	r0, #4
 1032 0538 0CD1     		bne	.L123
 1033              		.loc 1 763 0
 1034 053a 244C     		ldr	r4, .L141
 1035 053c 2178     		ldrb	r1, [r4]
 1036 053e 1E29     		cmp	r1, #30
 1037 0540 40D0     		beq	.L136
 1038              		.loc 1 765 0
 1039 0542 234B     		ldr	r3, .L141+4
 1040 0544 1878     		ldrb	r0, [r3]
 1041              	.LVL52:
 1042 0546 0122     		mov	r2, #1
 1043              	.L140:
 1044 0548 FFF750FF 		bl	moveField
 1045              		.loc 1 766 0
 1046 054c 2378     		ldrb	r3, [r4]
 1047 054e 0133     		add	r3, r3, #1
 1048              	.L138:
 1049 0550 2370     		strb	r3, [r4]
 1050 0552 37E0     		b	.L136
 1051              	.LVL53:
 1052              	.L123:
 1053              		.loc 1 769 0
 1054 0554 0228     		cmp	r0, #2
 1055 0556 07D1     		bne	.L126
 1056              		.loc 1 771 0
 1057 0558 1D4C     		ldr	r4, .L141+4
 1058 055a 2078     		ldrb	r0, [r4]
 1059              	.LVL54:
 1060 055c 1E28     		cmp	r0, #30
 1061 055e 31D0     		beq	.L136
 1062              		.loc 1 773 0
 1063 0560 1A4B     		ldr	r3, .L141
 1064 0562 1978     		ldrb	r1, [r3]
 1065 0564 0322     		mov	r2, #3
 1066 0566 EFE7     		b	.L140
 1067              	.LVL55:
 1068              	.L126:
 1069              		.loc 1 777 0
 1070 0568 0828     		cmp	r0, #8
 1071 056a 0BD1     		bne	.L129
 1072              		.loc 1 779 0
 1073 056c 184C     		ldr	r4, .L141+4
 1074 056e 2078     		ldrb	r0, [r4]
 1075              	.LVL56:
 1076 0570 0128     		cmp	r0, #1
 1077 0572 27D0     		beq	.L136
 1078              		.loc 1 781 0
 1079 0574 154B     		ldr	r3, .L141
 1080 0576 1978     		ldrb	r1, [r3]
 1081 0578 0222     		mov	r2, #2
 1082              	.L139:
 1083 057a FFF737FF 		bl	moveField
ARM GAS  /cygdrive/c/DOCUME~1/witaj/USTAWI~1/Temp/ccGe29Ta.s 			page 38


 1084              		.loc 1 782 0
 1085 057e 2378     		ldrb	r3, [r4]
 1086 0580 013B     		sub	r3, r3, #1
 1087 0582 E5E7     		b	.L138
 1088              	.LVL57:
 1089              	.L129:
 1090              		.loc 1 785 0
 1091 0584 1028     		cmp	r0, #16
 1092 0586 1DD1     		bne	.L136
 1093              		.loc 1 787 0
 1094 0588 124C     		ldr	r4, .L141+8
 1095 058a 2378     		ldrb	r3, [r4]
 1096 058c 002B     		cmp	r3, #0
 1097 058e 09D1     		bne	.L133
 1098              		.loc 1 789 0
 1099 0590 0121     		mov	r1, #1
 1100 0592 0120     		mov	r0, #1
 1101              	.LVL58:
 1102 0594 FFF7FEFF 		bl	setLED
 1103              		.loc 1 790 0
 1104 0598 0220     		mov	r0, #2
 1105 059a 0121     		mov	r1, #1
 1106 059c FFF7FEFF 		bl	setLED
 1107              		.loc 1 791 0
 1108 05a0 0123     		mov	r3, #1
 1109 05a2 08E0     		b	.L137
 1110              	.LVL59:
 1111              	.L133:
 1112              		.loc 1 796 0
 1113 05a4 0021     		mov	r1, #0
 1114 05a6 0120     		mov	r0, #1
 1115              	.LVL60:
 1116 05a8 FFF7FEFF 		bl	setLED
 1117              		.loc 1 797 0
 1118 05ac 0220     		mov	r0, #2
 1119 05ae 0021     		mov	r1, #0
 1120 05b0 FFF7FEFF 		bl	setLED
 1121              		.loc 1 798 0
 1122 05b4 0023     		mov	r3, #0
 1123              	.L137:
 1124 05b6 2370     		strb	r3, [r4]
 1125              		.loc 1 799 0
 1126 05b8 0120     		mov	r0, #1
 1127 05ba FFF7FEFF 		bl	osSleep
 1128              	.LBB24:
 1129              	.LBB25:
 1130              		.loc 1 535 0
 1131 05be 064B     		ldr	r3, .L141+12
 1132 05c0 0122     		mov	r2, #1
 1133 05c2 1A60     		str	r2, [r3]
 1134              	.LVL61:
 1135              	.L136:
 1136              	.LBE25:
 1137              	.LBE24:
 1138              		.loc 1 804 0
 1139              		@ sp needed for prologue
 1140 05c4 10BC     		pop	{r4}
ARM GAS  /cygdrive/c/DOCUME~1/witaj/USTAWI~1/Temp/ccGe29Ta.s 			page 39


 1141 05c6 01BC     		pop	{r0}
 1142 05c8 0047     		bx	r0
 1143              	.L142:
 1144 05ca 0000     		.align	2
 1145              	.L141:
 1146 05cc 0D000000 		.word	snakeYPos
 1147 05d0 0C000000 		.word	snakeXPos
 1148 05d4 10000000 		.word	isOn
 1149 05d8 0C4002E0 		.word	-536723444
 1150              	.LFE17:
 1151              		.size	moveSnake, .-moveSnake
 1152              		.align	2
 1153              		.global	playSnake
 1154              		.code 16
 1155              		.thumb_func
 1156              		.type	playSnake, %function
 1157              	playSnake:
 1158              	.LFB18:
 1159              		.loc 1 815 0
 1160 05dc F0B5     		push	{r4, r5, r6, r7, lr}
 1161              	.LCFI12:
 1162 05de 81B0     		sub	sp, sp, #4
 1163              	.LCFI13:
 1164              		.loc 1 817 0
 1165 05e0 3848     		ldr	r0, .L168
 1166 05e2 FFF70DFD 		bl	initTimer1
 1167              		.loc 1 818 0
 1168 05e6 384B     		ldr	r3, .L168+4
 1169 05e8 1022     		mov	r2, #16
 1170 05ea 1A70     		strb	r2, [r3]
 1171              		.loc 1 819 0
 1172 05ec 374B     		ldr	r3, .L168+8
 1173 05ee 1A70     		strb	r2, [r3]
 1174              		.loc 1 820 0
 1175 05f0 374A     		ldr	r2, .L168+12
 1176 05f2 0123     		mov	r3, #1
 1177 05f4 1370     		strb	r3, [r2]
 1178              		.loc 1 821 0
 1179 05f6 374A     		ldr	r2, .L168+16
 1180 05f8 0023     		mov	r3, #0
 1181 05fa 1370     		strb	r3, [r2]
 1182              		.loc 1 822 0
 1183 05fc 364A     		ldr	r2, .L168+20
 1184 05fe 0323     		mov	r3, #3
 1185 0600 1370     		strb	r3, [r2]
 1186              		.loc 1 823 0
 1187 0602 FFF7FEFF 		bl	lcdClrscr
 1188 0606 0024     		mov	r4, #0
 1189 0608 50E0     		b	.L144
 1190              	.LVL62:
 1191              	.L145:
 1192 060a 2306     		lsl	r3, r4, #24
 1193              	.LVL63:
 1194 060c 180E     		lsr	r0, r3, #24
 1195              	.LBB33:
 1196              	.LBB34:
 1197              		.loc 1 583 0
ARM GAS  /cygdrive/c/DOCUME~1/witaj/USTAWI~1/Temp/ccGe29Ta.s 			page 40


 1198 060e 0028     		cmp	r0, #0
 1199 0610 07D0     		beq	.L146
 1200 0612 0B06     		lsl	r3, r1, #24
 1201 0614 1B0E     		lsr	r3, r3, #24
 1202              	.LVL64:
 1203 0616 002B     		cmp	r3, #0
 1204 0618 03D0     		beq	.L146
 1205 061a 1F28     		cmp	r0, #31
 1206 061c 01D0     		beq	.L146
 1207 061e 1F2B     		cmp	r3, #31
 1208 0620 02D1     		bne	.L150
 1209              	.L146:
 1210              		.loc 1 585 0
 1211 0622 0323     		mov	r3, #3
 1212              	.LVL65:
 1213 0624 5B42     		neg	r3, r3
 1214 0626 1370     		strb	r3, [r2]
 1215              	.LVL66:
 1216              	.L150:
 1217 0628 0131     		add	r1, r1, #1
 1218 062a 0132     		add	r2, r2, #1
 1219              		.loc 1 581 0
 1220 062c 2029     		cmp	r1, #32
 1221 062e ECD1     		bne	.L145
 1222 0630 0134     		add	r4, r4, #1
 1223              		.loc 1 579 0
 1224 0632 202C     		cmp	r4, #32
 1225 0634 3AD1     		bne	.L144
 1226              	.LBE34:
 1227              	.LBE33:
 1228              	.LBB35:
 1229              	.LBB36:
 1230              		.loc 1 594 0
 1231 0636 254B     		ldr	r3, .L168+8
 1232              	.LVL67:
 1233 0638 1978     		ldrb	r1, [r3]
 1234 063a 234B     		ldr	r3, .L168+4
 1235 063c 1B78     		ldrb	r3, [r3]
 1236 063e 2748     		ldr	r0, .L168+24
 1237              	.LVL68:
 1238 0640 5B01     		lsl	r3, r3, #5
 1239 0642 1B18     		add	r3, r3, r0
 1240 0644 5D22     		mov	r2, #93
 1241 0646 5A54     		strb	r2, [r3, r1]
 1242              	.LBE36:
 1243              	.LBE35:
 1244              		.loc 1 826 0
 1245 0648 254A     		ldr	r2, .L168+28
 1246 064a 0223     		mov	r3, #2
 1247 064c 1370     		strb	r3, [r2]
 1248              		.loc 1 827 0
 1249 064e 254A     		ldr	r2, .L168+32
 1250 0650 0023     		mov	r3, #0
 1251 0652 1370     		strb	r3, [r2]
 1252              		.loc 1 829 0
 1253 0654 A522     		mov	r2, #165
 1254 0656 7323     		mov	r3, #115
ARM GAS  /cygdrive/c/DOCUME~1/witaj/USTAWI~1/Temp/ccGe29Ta.s 			page 41


 1255 0658 5200     		lsl	r2, r2, #1
 1256 065a 5B42     		neg	r3, r3
 1257 065c 8354     		strb	r3, [r0, r2]
 1258              		.loc 1 830 0
 1259 065e FFF79FFD 		bl	putSnack
 1260              		.loc 1 831 0
 1261 0662 FFF79DFD 		bl	putSnack
 1262              	.L153:
 1263              	.LBB37:
 1264              		.loc 1 834 0
 1265 0666 204A     		ldr	r2, .L168+36
 1266 0668 1368     		ldr	r3, [r2]
 1267 066a 0133     		add	r3, r3, #1
 1268 066c 1360     		str	r3, [r2]
 1269              		.loc 1 839 0
 1270 066e FFF7FEFF 		bl	checkKey
 1271              		.loc 1 840 0
 1272 0672 0028     		cmp	r0, #0
 1273 0674 04D0     		beq	.L154
 1274              		.loc 1 842 0
 1275 0676 1A4B     		ldr	r3, .L168+28
 1276 0678 1870     		strb	r0, [r3]
 1277              		.loc 1 843 0
 1278 067a 0120     		mov	r0, #1
 1279 067c FFF7FEFF 		bl	osSleep
 1280              	.L154:
 1281              		.loc 1 846 0
 1282 0680 174B     		ldr	r3, .L168+28
 1283 0682 1878     		ldrb	r0, [r3]
 1284 0684 FFF7FEFF 		bl	moveSnake
 1285 0688 0026     		mov	r6, #0
 1286 068a 14E0     		b	.L156
 1287              	.L157:
 1288              	.LBB38:
 1289              	.LBB39:
 1290              		.loc 1 570 0
 1291 068c 2B78     		ldrb	r3, [r5]
 1292 068e 211C     		mov	r1, r4
 1293 0690 0093     		str	r3, [sp]
 1294 0692 381C     		mov	r0, r7
 1295 0694 0422     		mov	r2, #4
 1296 0696 0423     		mov	r3, #4
 1297 0698 0434     		add	r4, r4, #4
 1298 069a FFF7FEFF 		bl	lcdRect
 1299 069e 0135     		add	r5, r5, #1
 1300              		.loc 1 568 0
 1301 06a0 802C     		cmp	r4, #128
 1302 06a2 F3D1     		bne	.L157
 1303 06a4 0136     		add	r6, r6, #1
 1304              		.loc 1 566 0
 1305 06a6 202E     		cmp	r6, #32
 1306 06a8 05D1     		bne	.L156
 1307 06aa DCE7     		b	.L153
 1308              	.LVL69:
 1309              	.L144:
 1310 06ac 0B4B     		ldr	r3, .L168+24
 1311              	.LVL70:
ARM GAS  /cygdrive/c/DOCUME~1/witaj/USTAWI~1/Temp/ccGe29Ta.s 			page 42


 1312 06ae 6201     		lsl	r2, r4, #5
 1313 06b0 D218     		add	r2, r2, r3
 1314 06b2 0021     		mov	r1, #0
 1315 06b4 A9E7     		b	.L145
 1316              	.LVL71:
 1317              	.L156:
 1318 06b6 094B     		ldr	r3, .L168+24
 1319 06b8 7201     		lsl	r2, r6, #5
 1320 06ba B700     		lsl	r7, r6, #2
 1321 06bc D518     		add	r5, r2, r3
 1322 06be 0024     		mov	r4, #0
 1323 06c0 E4E7     		b	.L157
 1324              	.L169:
 1325 06c2 0000     		.align	2
 1326              	.L168:
 1327 06c4 00000000 		.word	startMusic
 1328 06c8 0C000000 		.word	snakeXPos
 1329 06cc 0D000000 		.word	snakeYPos
 1330 06d0 0E000000 		.word	snakeSize
 1331 06d4 58040000 		.word	snakeTailGuard
 1332 06d8 18040000 		.word	snakeTail
 1333 06dc 18000000 		.word	gameArena
 1334 06e0 0F000000 		.word	lastKey
 1335 06e4 10000000 		.word	isOn
 1336 06e8 14000000 		.word	timeVal
 1337              	.LBE39:
 1338              	.LBE38:
 1339              	.LBE37:
 1340              	.LFE18:
 1341              		.size	playSnake, .-playSnake
 1342              		.global	toggle
 1343              		.bss
 1344              		.align	2
 1345              		.type	toggle, %object
 1346              		.size	toggle, 4
 1347              	toggle:
 1348 0000 00000000 		.space	4
 1349              		.global	count
 1350              		.align	2
 1351              		.type	count, %object
 1352              		.size	count, 4
 1353              	count:
 1354 0004 00000000 		.space	4
 1355              		.global	notes
 1356              		.data
 1357              		.align	1
 1358              		.type	notes, %object
 1359              		.size	notes, 16
 1360              	notes:
 1361 0000 0601     		.short	262
 1362 0002 2601     		.short	294
 1363 0004 4A01     		.short	330
 1364 0006 5D01     		.short	349
 1365 0008 8801     		.short	392
 1366 000a B801     		.short	440
 1367 000c EE01     		.short	494
 1368 000e 0B02     		.short	523
ARM GAS  /cygdrive/c/DOCUME~1/witaj/USTAWI~1/Temp/ccGe29Ta.s 			page 43


 1369              		.global	note
 1370              		.bss
 1371              		.align	2
 1372              		.type	note, %object
 1373              		.size	note, 4
 1374              	note:
 1375 0008 00000000 		.space	4
 1376              	snakeXPos:
 1377 000c 00       		.space	1
 1378              	snakeYPos:
 1379 000d 00       		.space	1
 1380              	snakeSize:
 1381 000e 00       		.space	1
 1382              	lastKey:
 1383 000f 00       		.space	1
 1384              	isOn:
 1385 0010 00       		.space	1
 1386 0011 000000   		.align	2
 1387              	timeVal:
 1388 0014 00000000 		.space	4
 1389              	gameArena:
 1390 0018 00000000 		.space	1024
 1390      00000000 
 1390      00000000 
 1390      00000000 
 1390      00000000 
 1391              	snakeTail:
 1392 0418 00000000 		.space	64
 1392      00000000 
 1392      00000000 
 1392      00000000 
 1392      00000000 
 1393              	snakeTailGuard:
 1394 0458 00       		.space	1
 1395 0459 000000   		.section	.debug_frame,"",%progbits
 1396              	.Lframe0:
 1397 0000 0C000000 		.4byte	.LECIE0-.LSCIE0
 1398              	.LSCIE0:
 1399 0004 FFFFFFFF 		.4byte	0xffffffff
 1400 0008 01       		.byte	0x1
 1401 0009 00       		.ascii	"\000"
 1402 000a 01       		.uleb128 0x1
 1403 000b 7C       		.sleb128 -4
 1404 000c 0E       		.byte	0xe
 1405 000d 0C       		.byte	0xc
 1406 000e 0D       		.uleb128 0xd
 1407 000f 00       		.uleb128 0x0
 1408              		.align	2
 1409              	.LECIE0:
 1410              	.LSFDE0:
 1411 0010 18000000 		.4byte	.LEFDE0-.LASFDE0
 1412              	.LASFDE0:
 1413 0014 00000000 		.4byte	.Lframe0
 1414 0018 00000000 		.4byte	.LFB5
 1415 001c 84000000 		.4byte	.LFE5-.LFB5
 1416 0020 42       		.byte	0x4
 1417              		.4byte	.LCFI0-.LFB5
ARM GAS  /cygdrive/c/DOCUME~1/witaj/USTAWI~1/Temp/ccGe29Ta.s 			page 44


 1418 0021 0E       		.byte	0xe
 1419 0022 0C       		.uleb128 0xc
 1420 0023 84       		.byte	0x84
 1421 0024 03       		.uleb128 0x3
 1422 0025 85       		.byte	0x85
 1423 0026 02       		.uleb128 0x2
 1424 0027 8E       		.byte	0x8e
 1425 0028 01       		.uleb128 0x1
 1426 0029 000000   		.align	2
 1427              	.LEFDE0:
 1428              	.LSFDE2:
 1429 002c 0C000000 		.4byte	.LEFDE2-.LASFDE2
 1430              	.LASFDE2:
 1431 0030 00000000 		.4byte	.Lframe0
 1432 0034 84000000 		.4byte	.LFB6
 1433 0038 0C000000 		.4byte	.LFE6-.LFB6
 1434              		.align	2
 1435              	.LEFDE2:
 1436              	.LSFDE4:
 1437 003c 0C000000 		.4byte	.LEFDE4-.LASFDE4
 1438              	.LASFDE4:
 1439 0040 00000000 		.4byte	.Lframe0
 1440 0044 90000000 		.4byte	.LFB16
 1441 0048 0C000000 		.4byte	.LFE16-.LFB16
 1442              		.align	2
 1443              	.LEFDE4:
 1444              	.LSFDE6:
 1445 004c 1C000000 		.4byte	.LEFDE6-.LASFDE6
 1446              	.LASFDE6:
 1447 0050 00000000 		.4byte	.Lframe0
 1448 0054 9C000000 		.4byte	.LFB19
 1449 0058 02010000 		.4byte	.LFE19-.LFB19
 1450 005c 42       		.byte	0x4
 1451              		.4byte	.LCFI1-.LFB19
 1452 005d 0E       		.byte	0xe
 1453 005e 14       		.uleb128 0x14
 1454 005f 84       		.byte	0x84
 1455 0060 05       		.uleb128 0x5
 1456 0061 85       		.byte	0x85
 1457 0062 04       		.uleb128 0x4
 1458 0063 86       		.byte	0x86
 1459 0064 03       		.uleb128 0x3
 1460 0065 87       		.byte	0x87
 1461 0066 02       		.uleb128 0x2
 1462 0067 8E       		.byte	0x8e
 1463 0068 01       		.uleb128 0x1
 1464 0069 42       		.byte	0x4
 1465              		.4byte	.LCFI2-.LCFI1
 1466 006a 0E       		.byte	0xe
 1467 006b 2C       		.uleb128 0x2c
 1468              		.align	2
 1469              	.LEFDE6:
 1470              	.LSFDE8:
 1471 006c 14000000 		.4byte	.LEFDE8-.LASFDE8
 1472              	.LASFDE8:
 1473 0070 00000000 		.4byte	.Lframe0
 1474 0074 A0010000 		.4byte	.LFB13
ARM GAS  /cygdrive/c/DOCUME~1/witaj/USTAWI~1/Temp/ccGe29Ta.s 			page 45


 1475 0078 58000000 		.4byte	.LFE13-.LFB13
 1476 007c 42       		.byte	0x4
 1477              		.4byte	.LCFI3-.LFB13
 1478 007d 0E       		.byte	0xe
 1479 007e 08       		.uleb128 0x8
 1480 007f 84       		.byte	0x84
 1481 0080 02       		.uleb128 0x2
 1482 0081 8E       		.byte	0x8e
 1483 0082 01       		.uleb128 0x1
 1484 0083 00       		.align	2
 1485              	.LEFDE8:
 1486              	.LSFDE10:
 1487 0084 1C000000 		.4byte	.LEFDE10-.LASFDE10
 1488              	.LASFDE10:
 1489 0088 00000000 		.4byte	.Lframe0
 1490 008c F8010000 		.4byte	.LFB3
 1491 0090 CC000000 		.4byte	.LFE3-.LFB3
 1492 0094 42       		.byte	0x4
 1493              		.4byte	.LCFI4-.LFB3
 1494 0095 0E       		.byte	0xe
 1495 0096 14       		.uleb128 0x14
 1496 0097 84       		.byte	0x84
 1497 0098 05       		.uleb128 0x5
 1498 0099 85       		.byte	0x85
 1499 009a 04       		.uleb128 0x4
 1500 009b 86       		.byte	0x86
 1501 009c 03       		.uleb128 0x3
 1502 009d 87       		.byte	0x87
 1503 009e 02       		.uleb128 0x2
 1504 009f 8E       		.byte	0x8e
 1505 00a0 01       		.uleb128 0x1
 1506 00a1 000000   		.align	2
 1507              	.LEFDE10:
 1508              	.LSFDE12:
 1509 00a4 1C000000 		.4byte	.LEFDE12-.LASFDE12
 1510              	.LASFDE12:
 1511 00a8 00000000 		.4byte	.Lframe0
 1512 00ac C4020000 		.4byte	.LFB2
 1513 00b0 C0000000 		.4byte	.LFE2-.LFB2
 1514 00b4 42       		.byte	0x4
 1515              		.4byte	.LCFI5-.LFB2
 1516 00b5 0E       		.byte	0xe
 1517 00b6 14       		.uleb128 0x14
 1518 00b7 84       		.byte	0x84
 1519 00b8 05       		.uleb128 0x5
 1520 00b9 85       		.byte	0x85
 1521 00ba 04       		.uleb128 0x4
 1522 00bb 86       		.byte	0x86
 1523 00bc 03       		.uleb128 0x3
 1524 00bd 87       		.byte	0x87
 1525 00be 02       		.uleb128 0x2
 1526 00bf 8E       		.byte	0x8e
 1527 00c0 01       		.uleb128 0x1
 1528 00c1 000000   		.align	2
 1529              	.LEFDE12:
 1530              	.LSFDE14:
 1531 00c4 20000000 		.4byte	.LEFDE14-.LASFDE14
ARM GAS  /cygdrive/c/DOCUME~1/witaj/USTAWI~1/Temp/ccGe29Ta.s 			page 46


 1532              	.LASFDE14:
 1533 00c8 00000000 		.4byte	.Lframe0
 1534 00cc 84030000 		.4byte	.LFB10
 1535 00d0 68000000 		.4byte	.LFE10-.LFB10
 1536 00d4 42       		.byte	0x4
 1537              		.4byte	.LCFI6-.LFB10
 1538 00d5 0E       		.byte	0xe
 1539 00d6 14       		.uleb128 0x14
 1540 00d7 84       		.byte	0x84
 1541 00d8 05       		.uleb128 0x5
 1542 00d9 85       		.byte	0x85
 1543 00da 04       		.uleb128 0x4
 1544 00db 86       		.byte	0x86
 1545 00dc 03       		.uleb128 0x3
 1546 00dd 87       		.byte	0x87
 1547 00de 02       		.uleb128 0x2
 1548 00df 8E       		.byte	0x8e
 1549 00e0 01       		.uleb128 0x1
 1550 00e1 4C       		.byte	0x4
 1551              		.4byte	.LCFI7-.LCFI6
 1552 00e2 0E       		.byte	0xe
 1553 00e3 1C       		.uleb128 0x1c
 1554 00e4 44       		.byte	0x4
 1555              		.4byte	.LCFI8-.LCFI7
 1556 00e5 0D       		.byte	0xd
 1557 00e6 07       		.uleb128 0x7
 1558 00e7 00       		.align	2
 1559              	.LEFDE14:
 1560              	.LSFDE16:
 1561 00e8 1C000000 		.4byte	.LEFDE16-.LASFDE16
 1562              	.LASFDE16:
 1563 00ec 00000000 		.4byte	.Lframe0
 1564 00f0 EC030000 		.4byte	.LFB12
 1565 00f4 30010000 		.4byte	.LFE12-.LFB12
 1566 00f8 42       		.byte	0x4
 1567              		.4byte	.LCFI9-.LFB12
 1568 00f9 0E       		.byte	0xe
 1569 00fa 14       		.uleb128 0x14
 1570 00fb 84       		.byte	0x84
 1571 00fc 05       		.uleb128 0x5
 1572 00fd 85       		.byte	0x85
 1573 00fe 04       		.uleb128 0x4
 1574 00ff 86       		.byte	0x86
 1575 0100 03       		.uleb128 0x3
 1576 0101 87       		.byte	0x87
 1577 0102 02       		.uleb128 0x2
 1578 0103 8E       		.byte	0x8e
 1579 0104 01       		.uleb128 0x1
 1580 0105 48       		.byte	0x4
 1581              		.4byte	.LCFI10-.LCFI9
 1582 0106 0E       		.byte	0xe
 1583 0107 24       		.uleb128 0x24
 1584              		.align	2
 1585              	.LEFDE16:
 1586              	.LSFDE18:
 1587 0108 14000000 		.4byte	.LEFDE18-.LASFDE18
 1588              	.LASFDE18:
ARM GAS  /cygdrive/c/DOCUME~1/witaj/USTAWI~1/Temp/ccGe29Ta.s 			page 47


 1589 010c 00000000 		.4byte	.Lframe0
 1590 0110 1C050000 		.4byte	.LFB17
 1591 0114 C0000000 		.4byte	.LFE17-.LFB17
 1592 0118 42       		.byte	0x4
 1593              		.4byte	.LCFI11-.LFB17
 1594 0119 0E       		.byte	0xe
 1595 011a 08       		.uleb128 0x8
 1596 011b 84       		.byte	0x84
 1597 011c 02       		.uleb128 0x2
 1598 011d 8E       		.byte	0x8e
 1599 011e 01       		.uleb128 0x1
 1600 011f 00       		.align	2
 1601              	.LEFDE18:
 1602              	.LSFDE20:
 1603 0120 1C000000 		.4byte	.LEFDE20-.LASFDE20
 1604              	.LASFDE20:
 1605 0124 00000000 		.4byte	.Lframe0
 1606 0128 DC050000 		.4byte	.LFB18
 1607 012c 10010000 		.4byte	.LFE18-.LFB18
 1608 0130 42       		.byte	0x4
 1609              		.4byte	.LCFI12-.LFB18
 1610 0131 0E       		.byte	0xe
 1611 0132 14       		.uleb128 0x14
 1612 0133 84       		.byte	0x84
 1613 0134 05       		.uleb128 0x5
 1614 0135 85       		.byte	0x85
 1615 0136 04       		.uleb128 0x4
 1616 0137 86       		.byte	0x86
 1617 0138 03       		.uleb128 0x3
 1618 0139 87       		.byte	0x87
 1619 013a 02       		.uleb128 0x2
 1620 013b 8E       		.byte	0x8e
 1621 013c 01       		.uleb128 0x1
 1622 013d 42       		.byte	0x4
 1623              		.4byte	.LCFI13-.LCFI12
 1624 013e 0E       		.byte	0xe
 1625 013f 18       		.uleb128 0x18
 1626              		.align	2
 1627              	.LEFDE20:
 1628              		.file 2 "./startup/../pre_emptive_os/api/../api/general.h"
 1629              		.text
 1630              	.Letext0:
 1631              		.section	.debug_loc,"",%progbits
 1632              	.Ldebug_loc0:
 1633              	.LLST0:
 1634 0000 00000000 		.4byte	.LFB5-.Ltext0
 1635 0004 02000000 		.4byte	.LCFI0-.Ltext0
 1636 0008 0100     		.2byte	0x1
 1637 000a 5D       		.byte	0x5d
 1638 000b 02000000 		.4byte	.LCFI0-.Ltext0
 1639 000f 84000000 		.4byte	.LFE5-.Ltext0
 1640 0013 0200     		.2byte	0x2
 1641 0015 7D       		.byte	0x7d
 1642 0016 0C       		.sleb128 12
 1643 0017 00000000 		.4byte	0x0
 1644 001b 00000000 		.4byte	0x0
 1645              	.LLST1:
ARM GAS  /cygdrive/c/DOCUME~1/witaj/USTAWI~1/Temp/ccGe29Ta.s 			page 48


 1646 001f 02000000 		.4byte	.LVL0-.Ltext0
 1647 0023 1E000000 		.4byte	.LVL1-.Ltext0
 1648 0027 0100     		.2byte	0x1
 1649 0029 50       		.byte	0x50
 1650 002a 1E000000 		.4byte	.LVL1-.Ltext0
 1651 002e 58000000 		.4byte	.LVL2-.Ltext0
 1652 0032 0100     		.2byte	0x1
 1653 0034 55       		.byte	0x55
 1654 0035 00000000 		.4byte	0x0
 1655 0039 00000000 		.4byte	0x0
 1656              	.LLST4:
 1657 003d 9C000000 		.4byte	.LFB19-.Ltext0
 1658 0041 9E000000 		.4byte	.LCFI1-.Ltext0
 1659 0045 0100     		.2byte	0x1
 1660 0047 5D       		.byte	0x5d
 1661 0048 9E000000 		.4byte	.LCFI1-.Ltext0
 1662 004c A0000000 		.4byte	.LCFI2-.Ltext0
 1663 0050 0200     		.2byte	0x2
 1664 0052 7D       		.byte	0x7d
 1665 0053 14       		.sleb128 20
 1666 0054 A0000000 		.4byte	.LCFI2-.Ltext0
 1667 0058 9E010000 		.4byte	.LFE19-.Ltext0
 1668 005c 0200     		.2byte	0x2
 1669 005e 7D       		.byte	0x7d
 1670 005f 2C       		.sleb128 44
 1671 0060 00000000 		.4byte	0x0
 1672 0064 00000000 		.4byte	0x0
 1673              	.LLST5:
 1674 0068 9E000000 		.4byte	.LVL3-.Ltext0
 1675 006c AA000000 		.4byte	.LVL4-.Ltext0
 1676 0070 0100     		.2byte	0x1
 1677 0072 50       		.byte	0x50
 1678 0073 AA000000 		.4byte	.LVL4-.Ltext0
 1679 0077 9E010000 		.4byte	.LFE19-.Ltext0
 1680 007b 0200     		.2byte	0x2
 1681 007d 91       		.byte	0x91
 1682 007e 6C       		.sleb128 -20
 1683 007f 00000000 		.4byte	0x0
 1684 0083 00000000 		.4byte	0x0
 1685              	.LLST6:
 1686 0087 9E000000 		.4byte	.LVL3-.Ltext0
 1687 008b B0000000 		.4byte	.LVL5-.Ltext0
 1688 008f 0100     		.2byte	0x1
 1689 0091 51       		.byte	0x51
 1690 0092 B0000000 		.4byte	.LVL5-.Ltext0
 1691 0096 9E010000 		.4byte	.LFE19-.Ltext0
 1692 009a 0200     		.2byte	0x2
 1693 009c 91       		.byte	0x91
 1694 009d 68       		.sleb128 -24
 1695 009e 00000000 		.4byte	0x0
 1696 00a2 00000000 		.4byte	0x0
 1697              	.LLST7:
 1698 00a6 C0000000 		.4byte	.LVL7-.Ltext0
 1699 00aa DE000000 		.4byte	.LVL8-.Ltext0
 1700 00ae 0100     		.2byte	0x1
 1701 00b0 54       		.byte	0x54
 1702 00b1 DE000000 		.4byte	.LVL8-.Ltext0
ARM GAS  /cygdrive/c/DOCUME~1/witaj/USTAWI~1/Temp/ccGe29Ta.s 			page 49


 1703 00b5 00010000 		.4byte	.LVL9-.Ltext0
 1704 00b9 0200     		.2byte	0x2
 1705 00bb 91       		.byte	0x91
 1706 00bc 70       		.sleb128 -16
 1707 00bd 52010000 		.4byte	.LVL10-.Ltext0
 1708 00c1 5A010000 		.4byte	.LVL12-.Ltext0
 1709 00c5 0100     		.2byte	0x1
 1710 00c7 54       		.byte	0x54
 1711 00c8 5A010000 		.4byte	.LVL12-.Ltext0
 1712 00cc 5C010000 		.4byte	.LVL13-.Ltext0
 1713 00d0 0200     		.2byte	0x2
 1714 00d2 91       		.byte	0x91
 1715 00d3 70       		.sleb128 -16
 1716 00d4 70010000 		.4byte	.LVL14-.Ltext0
 1717 00d8 8E010000 		.4byte	.LVL15-.Ltext0
 1718 00dc 0100     		.2byte	0x1
 1719 00de 54       		.byte	0x54
 1720 00df 96010000 		.4byte	.LVL16-.Ltext0
 1721 00e3 98010000 		.4byte	.LVL17-.Ltext0
 1722 00e7 0200     		.2byte	0x2
 1723 00e9 91       		.byte	0x91
 1724 00ea 70       		.sleb128 -16
 1725 00eb 00000000 		.4byte	0x0
 1726 00ef 00000000 		.4byte	0x0
 1727              	.LLST8:
 1728 00f3 DE000000 		.4byte	.LVL8-.Ltext0
 1729 00f7 52010000 		.4byte	.LVL10-.Ltext0
 1730 00fb 0200     		.2byte	0x2
 1731 00fd 91       		.byte	0x91
 1732 00fe 78       		.sleb128 -8
 1733 00ff 58010000 		.4byte	.LVL11-.Ltext0
 1734 0103 8E010000 		.4byte	.LVL15-.Ltext0
 1735 0107 0200     		.2byte	0x2
 1736 0109 91       		.byte	0x91
 1737 010a 78       		.sleb128 -8
 1738 010b 96010000 		.4byte	.LVL16-.Ltext0
 1739 010f 9E010000 		.4byte	.LFE19-.Ltext0
 1740 0113 0200     		.2byte	0x2
 1741 0115 91       		.byte	0x91
 1742 0116 78       		.sleb128 -8
 1743 0117 00000000 		.4byte	0x0
 1744 011b 00000000 		.4byte	0x0
 1745              	.LLST9:
 1746 011f DE000000 		.4byte	.LVL8-.Ltext0
 1747 0123 52010000 		.4byte	.LVL10-.Ltext0
 1748 0127 0200     		.2byte	0x2
 1749 0129 91       		.byte	0x91
 1750 012a 7C       		.sleb128 -4
 1751 012b 5C010000 		.4byte	.LVL13-.Ltext0
 1752 012f 8E010000 		.4byte	.LVL15-.Ltext0
 1753 0133 0200     		.2byte	0x2
 1754 0135 91       		.byte	0x91
 1755 0136 7C       		.sleb128 -4
 1756 0137 96010000 		.4byte	.LVL16-.Ltext0
 1757 013b 9E010000 		.4byte	.LFE19-.Ltext0
 1758 013f 0200     		.2byte	0x2
 1759 0141 91       		.byte	0x91
ARM GAS  /cygdrive/c/DOCUME~1/witaj/USTAWI~1/Temp/ccGe29Ta.s 			page 50


 1760 0142 7C       		.sleb128 -4
 1761 0143 00000000 		.4byte	0x0
 1762 0147 00000000 		.4byte	0x0
 1763              	.LLST10:
 1764 014b DE000000 		.4byte	.LVL8-.Ltext0
 1765 014f 52010000 		.4byte	.LVL10-.Ltext0
 1766 0153 0100     		.2byte	0x1
 1767 0155 56       		.byte	0x56
 1768 0156 5C010000 		.4byte	.LVL13-.Ltext0
 1769 015a 8E010000 		.4byte	.LVL15-.Ltext0
 1770 015e 0100     		.2byte	0x1
 1771 0160 56       		.byte	0x56
 1772 0161 96010000 		.4byte	.LVL16-.Ltext0
 1773 0165 98010000 		.4byte	.LVL18-.Ltext0
 1774 0169 0100     		.2byte	0x1
 1775 016b 56       		.byte	0x56
 1776 016c 00000000 		.4byte	0x0
 1777 0170 00000000 		.4byte	0x0
 1778              	.LLST11:
 1779 0174 A0010000 		.4byte	.LFB13-.Ltext0
 1780 0178 A2010000 		.4byte	.LCFI3-.Ltext0
 1781 017c 0100     		.2byte	0x1
 1782 017e 5D       		.byte	0x5d
 1783 017f A2010000 		.4byte	.LCFI3-.Ltext0
 1784 0183 F8010000 		.4byte	.LFE13-.Ltext0
 1785 0187 0200     		.2byte	0x2
 1786 0189 7D       		.byte	0x7d
 1787 018a 08       		.sleb128 8
 1788 018b 00000000 		.4byte	0x0
 1789 018f 00000000 		.4byte	0x0
 1790              	.LLST12:
 1791 0193 F8010000 		.4byte	.LFB3-.Ltext0
 1792 0197 FA010000 		.4byte	.LCFI4-.Ltext0
 1793 019b 0100     		.2byte	0x1
 1794 019d 5D       		.byte	0x5d
 1795 019e FA010000 		.4byte	.LCFI4-.Ltext0
 1796 01a2 C4020000 		.4byte	.LFE3-.Ltext0
 1797 01a6 0200     		.2byte	0x2
 1798 01a8 7D       		.byte	0x7d
 1799 01a9 14       		.sleb128 20
 1800 01aa 00000000 		.4byte	0x0
 1801 01ae 00000000 		.4byte	0x0
 1802              	.LLST13:
 1803 01b2 C4020000 		.4byte	.LFB2-.Ltext0
 1804 01b6 C6020000 		.4byte	.LCFI5-.Ltext0
 1805 01ba 0100     		.2byte	0x1
 1806 01bc 5D       		.byte	0x5d
 1807 01bd C6020000 		.4byte	.LCFI5-.Ltext0
 1808 01c1 84030000 		.4byte	.LFE2-.Ltext0
 1809 01c5 0200     		.2byte	0x2
 1810 01c7 7D       		.byte	0x7d
 1811 01c8 14       		.sleb128 20
 1812 01c9 00000000 		.4byte	0x0
 1813 01cd 00000000 		.4byte	0x0
 1814              	.LLST14:
 1815 01d1 84030000 		.4byte	.LFB10-.Ltext0
 1816 01d5 86030000 		.4byte	.LCFI6-.Ltext0
ARM GAS  /cygdrive/c/DOCUME~1/witaj/USTAWI~1/Temp/ccGe29Ta.s 			page 51


 1817 01d9 0100     		.2byte	0x1
 1818 01db 5D       		.byte	0x5d
 1819 01dc 86030000 		.4byte	.LCFI6-.Ltext0
 1820 01e0 92030000 		.4byte	.LCFI7-.Ltext0
 1821 01e4 0200     		.2byte	0x2
 1822 01e6 7D       		.byte	0x7d
 1823 01e7 14       		.sleb128 20
 1824 01e8 92030000 		.4byte	.LCFI7-.Ltext0
 1825 01ec 96030000 		.4byte	.LCFI8-.Ltext0
 1826 01f0 0200     		.2byte	0x2
 1827 01f2 7D       		.byte	0x7d
 1828 01f3 1C       		.sleb128 28
 1829 01f4 96030000 		.4byte	.LCFI8-.Ltext0
 1830 01f8 EC030000 		.4byte	.LFE10-.Ltext0
 1831 01fc 0200     		.2byte	0x2
 1832 01fe 77       		.byte	0x77
 1833 01ff 1C       		.sleb128 28
 1834 0200 00000000 		.4byte	0x0
 1835 0204 00000000 		.4byte	0x0
 1836              	.LLST15:
 1837 0208 8A030000 		.4byte	.LVL19-.Ltext0
 1838 020c CC030000 		.4byte	.LVL20-.Ltext0
 1839 0210 0100     		.2byte	0x1
 1840 0212 54       		.byte	0x54
 1841 0213 CC030000 		.4byte	.LVL20-.Ltext0
 1842 0217 EC030000 		.4byte	.LFE10-.Ltext0
 1843 021b 0100     		.2byte	0x1
 1844 021d 50       		.byte	0x50
 1845 021e 00000000 		.4byte	0x0
 1846 0222 00000000 		.4byte	0x0
 1847              	.LLST16:
 1848 0226 EC030000 		.4byte	.LFB12-.Ltext0
 1849 022a EE030000 		.4byte	.LCFI9-.Ltext0
 1850 022e 0100     		.2byte	0x1
 1851 0230 5D       		.byte	0x5d
 1852 0231 EE030000 		.4byte	.LCFI9-.Ltext0
 1853 0235 F6030000 		.4byte	.LCFI10-.Ltext0
 1854 0239 0200     		.2byte	0x2
 1855 023b 7D       		.byte	0x7d
 1856 023c 14       		.sleb128 20
 1857 023d F6030000 		.4byte	.LCFI10-.Ltext0
 1858 0241 1C050000 		.4byte	.LFE12-.Ltext0
 1859 0245 0200     		.2byte	0x2
 1860 0247 7D       		.byte	0x7d
 1861 0248 24       		.sleb128 36
 1862 0249 00000000 		.4byte	0x0
 1863 024d 00000000 		.4byte	0x0
 1864              	.LLST17:
 1865 0251 EE030000 		.4byte	.LVL21-.Ltext0
 1866 0255 F0030000 		.4byte	.LVL22-.Ltext0
 1867 0259 0100     		.2byte	0x1
 1868 025b 50       		.byte	0x50
 1869 025c 00000000 		.4byte	0x0
 1870 0260 00000000 		.4byte	0x0
 1871              	.LLST18:
 1872 0264 EE030000 		.4byte	.LVL21-.Ltext0
 1873 0268 F2030000 		.4byte	.LVL23-.Ltext0
ARM GAS  /cygdrive/c/DOCUME~1/witaj/USTAWI~1/Temp/ccGe29Ta.s 			page 52


 1874 026c 0100     		.2byte	0x1
 1875 026e 51       		.byte	0x51
 1876 026f F8030000 		.4byte	.LVL25-.Ltext0
 1877 0273 1A040000 		.4byte	.LVL29-.Ltext0
 1878 0277 0100     		.2byte	0x1
 1879 0279 51       		.byte	0x51
 1880 027a 1C040000 		.4byte	.LVL30-.Ltext0
 1881 027e 1E040000 		.4byte	.LVL31-.Ltext0
 1882 0282 0100     		.2byte	0x1
 1883 0284 51       		.byte	0x51
 1884 0285 22040000 		.4byte	.LVL32-.Ltext0
 1885 0289 2C040000 		.4byte	.LVL33-.Ltext0
 1886 028d 0100     		.2byte	0x1
 1887 028f 51       		.byte	0x51
 1888 0290 30040000 		.4byte	.LVL34-.Ltext0
 1889 0294 7C040000 		.4byte	.LVL39-.Ltext0
 1890 0298 0100     		.2byte	0x1
 1891 029a 51       		.byte	0x51
 1892 029b 9E040000 		.4byte	.LVL40-.Ltext0
 1893 029f A8040000 		.4byte	.LVL41-.Ltext0
 1894 02a3 0100     		.2byte	0x1
 1895 02a5 51       		.byte	0x51
 1896 02a6 F6040000 		.4byte	.LVL43-.Ltext0
 1897 02aa 1C050000 		.4byte	.LFE12-.Ltext0
 1898 02ae 0100     		.2byte	0x1
 1899 02b0 51       		.byte	0x51
 1900 02b1 00000000 		.4byte	0x0
 1901 02b5 00000000 		.4byte	0x0
 1902              	.LLST19:
 1903 02b9 EE030000 		.4byte	.LVL21-.Ltext0
 1904 02bd F4030000 		.4byte	.LVL24-.Ltext0
 1905 02c1 0100     		.2byte	0x1
 1906 02c3 52       		.byte	0x52
 1907 02c4 FC030000 		.4byte	.LVL26-.Ltext0
 1908 02c8 F8040000 		.4byte	.LVL46-.Ltext0
 1909 02cc 0100     		.2byte	0x1
 1910 02ce 57       		.byte	0x57
 1911 02cf 00000000 		.4byte	0x0
 1912 02d3 00000000 		.4byte	0x0
 1913              	.LLST20:
 1914 02d7 34040000 		.4byte	.LVL35-.Ltext0
 1915 02db F8040000 		.4byte	.LVL44-.Ltext0
 1916 02df 0100     		.2byte	0x1
 1917 02e1 55       		.byte	0x55
 1918 02e2 00000000 		.4byte	0x0
 1919 02e6 00000000 		.4byte	0x0
 1920              	.LLST21:
 1921 02ea 38040000 		.4byte	.LVL36-.Ltext0
 1922 02ee F8040000 		.4byte	.LVL45-.Ltext0
 1923 02f2 0100     		.2byte	0x1
 1924 02f4 56       		.byte	0x56
 1925 02f5 00000000 		.4byte	0x0
 1926 02f9 00000000 		.4byte	0x0
 1927              	.LLST22:
 1928 02fd 3E040000 		.4byte	.LVL37-.Ltext0
 1929 0301 44040000 		.4byte	.LVL38-.Ltext0
 1930 0305 0200     		.2byte	0x2
ARM GAS  /cygdrive/c/DOCUME~1/witaj/USTAWI~1/Temp/ccGe29Ta.s 			page 53


 1931 0307 91       		.byte	0x91
 1932 0308 7C       		.sleb128 -4
 1933 0309 44040000 		.4byte	.LVL38-.Ltext0
 1934 030d B0040000 		.4byte	.LVL42-.Ltext0
 1935 0311 0100     		.2byte	0x1
 1936 0313 54       		.byte	0x54
 1937 0314 00000000 		.4byte	0x0
 1938 0318 00000000 		.4byte	0x0
 1939              	.LLST23:
 1940 031c 1C050000 		.4byte	.LFB17-.Ltext0
 1941 0320 1E050000 		.4byte	.LCFI11-.Ltext0
 1942 0324 0100     		.2byte	0x1
 1943 0326 5D       		.byte	0x5d
 1944 0327 1E050000 		.4byte	.LCFI11-.Ltext0
 1945 032b DC050000 		.4byte	.LFE17-.Ltext0
 1946 032f 0200     		.2byte	0x2
 1947 0331 7D       		.byte	0x7d
 1948 0332 08       		.sleb128 8
 1949 0333 00000000 		.4byte	0x0
 1950 0337 00000000 		.4byte	0x0
 1951              	.LLST24:
 1952 033b 1E050000 		.4byte	.LVL47-.Ltext0
 1953 033f 20050000 		.4byte	.LVL48-.Ltext0
 1954 0343 0100     		.2byte	0x1
 1955 0345 50       		.byte	0x50
 1956 0346 22050000 		.4byte	.LVL49-.Ltext0
 1957 034a 32050000 		.4byte	.LVL50-.Ltext0
 1958 034e 0100     		.2byte	0x1
 1959 0350 50       		.byte	0x50
 1960 0351 36050000 		.4byte	.LVL51-.Ltext0
 1961 0355 46050000 		.4byte	.LVL52-.Ltext0
 1962 0359 0100     		.2byte	0x1
 1963 035b 50       		.byte	0x50
 1964 035c 54050000 		.4byte	.LVL53-.Ltext0
 1965 0360 5C050000 		.4byte	.LVL54-.Ltext0
 1966 0364 0100     		.2byte	0x1
 1967 0366 50       		.byte	0x50
 1968 0367 68050000 		.4byte	.LVL55-.Ltext0
 1969 036b 70050000 		.4byte	.LVL56-.Ltext0
 1970 036f 0100     		.2byte	0x1
 1971 0371 50       		.byte	0x50
 1972 0372 84050000 		.4byte	.LVL57-.Ltext0
 1973 0376 94050000 		.4byte	.LVL58-.Ltext0
 1974 037a 0100     		.2byte	0x1
 1975 037c 50       		.byte	0x50
 1976 037d A4050000 		.4byte	.LVL59-.Ltext0
 1977 0381 A8050000 		.4byte	.LVL60-.Ltext0
 1978 0385 0100     		.2byte	0x1
 1979 0387 50       		.byte	0x50
 1980 0388 C4050000 		.4byte	.LVL61-.Ltext0
 1981 038c DC050000 		.4byte	.LFE17-.Ltext0
 1982 0390 0100     		.2byte	0x1
 1983 0392 50       		.byte	0x50
 1984 0393 00000000 		.4byte	0x0
 1985 0397 00000000 		.4byte	0x0
 1986              	.LLST25:
 1987 039b DC050000 		.4byte	.LFB18-.Ltext0
ARM GAS  /cygdrive/c/DOCUME~1/witaj/USTAWI~1/Temp/ccGe29Ta.s 			page 54


 1988 039f DE050000 		.4byte	.LCFI12-.Ltext0
 1989 03a3 0100     		.2byte	0x1
 1990 03a5 5D       		.byte	0x5d
 1991 03a6 DE050000 		.4byte	.LCFI12-.Ltext0
 1992 03aa E0050000 		.4byte	.LCFI13-.Ltext0
 1993 03ae 0200     		.2byte	0x2
 1994 03b0 7D       		.byte	0x7d
 1995 03b1 14       		.sleb128 20
 1996 03b2 E0050000 		.4byte	.LCFI13-.Ltext0
 1997 03b6 EC060000 		.4byte	.LFE18-.Ltext0
 1998 03ba 0200     		.2byte	0x2
 1999 03bc 7D       		.byte	0x7d
 2000 03bd 18       		.sleb128 24
 2001 03be 00000000 		.4byte	0x0
 2002 03c2 00000000 		.4byte	0x0
 2003              	.LLST26:
 2004 03c6 0A060000 		.4byte	.LVL62-.Ltext0
 2005 03ca 40060000 		.4byte	.LVL68-.Ltext0
 2006 03ce 0100     		.2byte	0x1
 2007 03d0 50       		.byte	0x50
 2008 03d1 AC060000 		.4byte	.LVL69-.Ltext0
 2009 03d5 B6060000 		.4byte	.LVL71-.Ltext0
 2010 03d9 0100     		.2byte	0x1
 2011 03db 50       		.byte	0x50
 2012 03dc 00000000 		.4byte	0x0
 2013 03e0 00000000 		.4byte	0x0
 2014              	.LLST27:
 2015 03e4 0A060000 		.4byte	.LVL62-.Ltext0
 2016 03e8 0C060000 		.4byte	.LVL63-.Ltext0
 2017 03ec 0100     		.2byte	0x1
 2018 03ee 53       		.byte	0x53
 2019 03ef 16060000 		.4byte	.LVL64-.Ltext0
 2020 03f3 24060000 		.4byte	.LVL65-.Ltext0
 2021 03f7 0100     		.2byte	0x1
 2022 03f9 53       		.byte	0x53
 2023 03fa 28060000 		.4byte	.LVL66-.Ltext0
 2024 03fe 38060000 		.4byte	.LVL67-.Ltext0
 2025 0402 0100     		.2byte	0x1
 2026 0404 53       		.byte	0x53
 2027 0405 AC060000 		.4byte	.LVL69-.Ltext0
 2028 0409 AE060000 		.4byte	.LVL70-.Ltext0
 2029 040d 0100     		.2byte	0x1
 2030 040f 53       		.byte	0x53
 2031 0410 00000000 		.4byte	0x0
 2032 0414 00000000 		.4byte	0x0
 2033              		.section	.debug_info
 2034 0000 3C060000 		.4byte	0x63c
 2035 0004 0200     		.2byte	0x2
 2036 0006 00000000 		.4byte	.Ldebug_abbrev0
 2037 000a 04       		.byte	0x4
 2038 000b 01       		.uleb128 0x1
 2039 000c 00000000 		.4byte	.Ldebug_line0
 2040 0010 EC060000 		.4byte	.Letext0
 2041 0014 00000000 		.4byte	.Ltext0
 2042 0018 31020000 		.4byte	.LASF62
 2043 001c 01       		.byte	0x1
 2044 001d 82020000 		.4byte	.LASF63
ARM GAS  /cygdrive/c/DOCUME~1/witaj/USTAWI~1/Temp/ccGe29Ta.s 			page 55


 2045 0021 53010000 		.4byte	.LASF64
 2046 0025 02       		.uleb128 0x2
 2047 0026 74553800 		.ascii	"tU8\000"
 2048 002a 02       		.byte	0x2
 2049 002b 47       		.byte	0x47
 2050 002c 30000000 		.4byte	0x30
 2051 0030 03       		.uleb128 0x3
 2052 0031 23020000 		.4byte	.LASF1
 2053 0035 01       		.byte	0x1
 2054 0036 08       		.byte	0x8
 2055 0037 04       		.uleb128 0x4
 2056 0038 AC000000 		.4byte	.LASF0
 2057 003c 02       		.byte	0x2
 2058 003d 48       		.byte	0x48
 2059 003e 42000000 		.4byte	0x42
 2060 0042 03       		.uleb128 0x3
 2061 0043 29010000 		.4byte	.LASF2
 2062 0047 02       		.byte	0x2
 2063 0048 07       		.byte	0x7
 2064 0049 04       		.uleb128 0x4
 2065 004a A6010000 		.4byte	.LASF3
 2066 004e 02       		.byte	0x2
 2067 004f 49       		.byte	0x49
 2068 0050 54000000 		.4byte	0x54
 2069 0054 03       		.uleb128 0x3
 2070 0055 F5000000 		.4byte	.LASF4
 2071 0059 04       		.byte	0x4
 2072 005a 07       		.byte	0x7
 2073 005b 03       		.uleb128 0x3
 2074 005c 23000000 		.4byte	.LASF5
 2075 0060 01       		.byte	0x1
 2076 0061 06       		.byte	0x6
 2077 0062 03       		.uleb128 0x3
 2078 0063 42020000 		.4byte	.LASF6
 2079 0067 02       		.byte	0x2
 2080 0068 05       		.byte	0x5
 2081 0069 05       		.uleb128 0x5
 2082 006a 696E7400 		.ascii	"int\000"
 2083 006e 04       		.byte	0x4
 2084 006f 05       		.byte	0x5
 2085 0070 06       		.uleb128 0x6
 2086 0071 04       		.byte	0x4
 2087 0072 25000000 		.4byte	0x25
 2088 0076 03       		.uleb128 0x3
 2089 0077 17010000 		.4byte	.LASF7
 2090 007b 04       		.byte	0x4
 2091 007c 07       		.byte	0x7
 2092 007d 03       		.uleb128 0x3
 2093 007e 17010000 		.4byte	.LASF7
 2094 0082 04       		.byte	0x4
 2095 0083 07       		.byte	0x7
 2096 0084 03       		.uleb128 0x3
 2097 0085 B1000000 		.4byte	.LASF8
 2098 0089 04       		.byte	0x4
 2099 008a 05       		.byte	0x5
 2100 008b 03       		.uleb128 0x3
 2101 008c 79000000 		.4byte	.LASF9
ARM GAS  /cygdrive/c/DOCUME~1/witaj/USTAWI~1/Temp/ccGe29Ta.s 			page 56


 2102 0090 08       		.byte	0x8
 2103 0091 05       		.byte	0x5
 2104 0092 03       		.uleb128 0x3
 2105 0093 65020000 		.4byte	.LASF10
 2106 0097 01       		.byte	0x1
 2107 0098 08       		.byte	0x8
 2108 0099 03       		.uleb128 0x3
 2109 009a 62000000 		.4byte	.LASF11
 2110 009e 08       		.byte	0x8
 2111 009f 07       		.byte	0x7
 2112 00a0 07       		.uleb128 0x7
 2113 00a1 CF000000 		.4byte	0xcf
 2114 00a5 E3000000 		.4byte	.LASF13
 2115 00a9 01       		.byte	0x1
 2116 00aa 5102     		.2byte	0x251
 2117 00ac 01       		.byte	0x1
 2118 00ad 01       		.byte	0x1
 2119 00ae 08       		.uleb128 0x8
 2120 00af 7800     		.ascii	"x\000"
 2121 00b1 01       		.byte	0x1
 2122 00b2 5002     		.2byte	0x250
 2123 00b4 25000000 		.4byte	0x25
 2124 00b8 08       		.uleb128 0x8
 2125 00b9 7900     		.ascii	"y\000"
 2126 00bb 01       		.byte	0x1
 2127 00bc 5002     		.2byte	0x250
 2128 00be 25000000 		.4byte	0x25
 2129 00c2 09       		.uleb128 0x9
 2130 00c3 C6010000 		.4byte	.LASF12
 2131 00c7 01       		.byte	0x1
 2132 00c8 5002     		.2byte	0x250
 2133 00ca 25000000 		.4byte	0x25
 2134 00ce 00       		.byte	0x0
 2135 00cf 0A       		.uleb128 0xa
 2136 00d0 1C020000 		.4byte	.LASF29
 2137 00d4 01       		.byte	0x1
 2138 00d5 1602     		.2byte	0x216
 2139 00d7 01       		.byte	0x1
 2140 00d8 01       		.byte	0x1
 2141 00d9 0B       		.uleb128 0xb
 2142 00da 03010000 		.4byte	0x103
 2143 00de 57000000 		.4byte	.LASF14
 2144 00e2 01       		.byte	0x1
 2145 00e3 1C02     		.2byte	0x21c
 2146 00e5 01       		.byte	0x1
 2147 00e6 00000000 		.4byte	.LFB5
 2148 00ea 84000000 		.4byte	.LFE5
 2149 00ee 00000000 		.4byte	.LLST0
 2150 00f2 0C       		.uleb128 0xc
 2151 00f3 4C020000 		.4byte	.LASF15
 2152 00f7 01       		.byte	0x1
 2153 00f8 1B02     		.2byte	0x21b
 2154 00fa 49000000 		.4byte	0x49
 2155 00fe 1F000000 		.4byte	.LLST1
 2156 0102 00       		.byte	0x0
 2157 0103 0D       		.uleb128 0xd
 2158 0104 01       		.byte	0x1
ARM GAS  /cygdrive/c/DOCUME~1/witaj/USTAWI~1/Temp/ccGe29Ta.s 			page 57


 2159 0105 BB010000 		.4byte	.LASF16
 2160 0109 01       		.byte	0x1
 2161 010a 2D02     		.2byte	0x22d
 2162 010c 84000000 		.4byte	.LFB6
 2163 0110 90000000 		.4byte	.LFE6
 2164 0114 01       		.byte	0x1
 2165 0115 5D       		.byte	0x5d
 2166 0116 0D       		.uleb128 0xd
 2167 0117 01       		.byte	0x1
 2168 0118 C2020000 		.4byte	.LASF17
 2169 011c 01       		.byte	0x1
 2170 011d EA02     		.2byte	0x2ea
 2171 011f 90000000 		.4byte	.LFB16
 2172 0123 9C000000 		.4byte	.LFE16
 2173 0127 01       		.byte	0x1
 2174 0128 5D       		.byte	0x5d
 2175 0129 0E       		.uleb128 0xe
 2176 012a F5010000 		.4byte	0x1f5
 2177 012e 01       		.byte	0x1
 2178 012f FF010000 		.4byte	.LASF41
 2179 0133 01       		.byte	0x1
 2180 0134 B103     		.2byte	0x3b1
 2181 0136 01       		.byte	0x1
 2182 0137 9C000000 		.4byte	.LFB19
 2183 013b 9E010000 		.4byte	.LFE19
 2184 013f 3D000000 		.4byte	.LLST4
 2185 0143 0C       		.uleb128 0xc
 2186 0144 EC000000 		.4byte	.LASF18
 2187 0148 01       		.byte	0x1
 2188 0149 B003     		.2byte	0x3b0
 2189 014b 70000000 		.4byte	0x70
 2190 014f 68000000 		.4byte	.LLST5
 2191 0153 0C       		.uleb128 0xc
 2192 0154 4B010000 		.4byte	.LASF19
 2193 0158 01       		.byte	0x1
 2194 0159 B003     		.2byte	0x3b0
 2195 015b 69000000 		.4byte	0x69
 2196 015f 87000000 		.4byte	.LLST6
 2197 0163 0F       		.uleb128 0xf
 2198 0164 6900     		.ascii	"i\000"
 2199 0166 01       		.byte	0x1
 2200 0167 B203     		.2byte	0x3b2
 2201 0169 25000000 		.4byte	0x25
 2202 016d A6000000 		.4byte	.LLST7
 2203 0171 10       		.uleb128 0x10
 2204 0172 A7020000 		.4byte	.LASF20
 2205 0176 01       		.byte	0x1
 2206 0177 B403     		.2byte	0x3b4
 2207 0179 69000000 		.4byte	0x69
 2208 017d 02       		.byte	0x2
 2209 017e 91       		.byte	0x91
 2210 017f 74       		.sleb128 -12
 2211 0180 11       		.uleb128 0x11
 2212 0181 AB010000 		.4byte	.LASF21
 2213 0185 01       		.byte	0x1
 2214 0186 BB03     		.2byte	0x3bb
 2215 0188 25000000 		.4byte	0x25
ARM GAS  /cygdrive/c/DOCUME~1/witaj/USTAWI~1/Temp/ccGe29Ta.s 			page 58


 2216 018c 12       		.uleb128 0x12
 2217 018d A2010000 		.4byte	0x1a2
 2218 0191 00000000 		.4byte	.Ldebug_ranges0+0x0
 2219 0195 11       		.uleb128 0x11
 2220 0196 C4000000 		.4byte	.LASF22
 2221 019a 01       		.byte	0x1
 2222 019b BE03     		.2byte	0x3be
 2223 019d 25000000 		.4byte	0x25
 2224 01a1 00       		.byte	0x0
 2225 01a2 13       		.uleb128 0x13
 2226 01a3 18000000 		.4byte	.Ldebug_ranges0+0x18
 2227 01a7 14       		.uleb128 0x14
 2228 01a8 90000000 		.4byte	.LASF23
 2229 01ac 01       		.byte	0x1
 2230 01ad CF03     		.2byte	0x3cf
 2231 01af 25000000 		.4byte	0x25
 2232 01b3 F3000000 		.4byte	.LLST8
 2233 01b7 14       		.uleb128 0x14
 2234 01b8 7A020000 		.4byte	.LASF24
 2235 01bc 01       		.byte	0x1
 2236 01bd D003     		.2byte	0x3d0
 2237 01bf 25000000 		.4byte	0x25
 2238 01c3 1F010000 		.4byte	.LLST9
 2239 01c7 11       		.uleb128 0x11
 2240 01c8 87000000 		.4byte	.LASF25
 2241 01cc 01       		.byte	0x1
 2242 01cd D103     		.2byte	0x3d1
 2243 01cf F5010000 		.4byte	0x1f5
 2244 01d3 14       		.uleb128 0x14
 2245 01d4 1A000000 		.4byte	.LASF26
 2246 01d8 01       		.byte	0x1
 2247 01d9 D203     		.2byte	0x3d2
 2248 01db 25000000 		.4byte	0x25
 2249 01df 4B010000 		.4byte	.LLST10
 2250 01e3 13       		.uleb128 0x13
 2251 01e4 30000000 		.4byte	.Ldebug_ranges0+0x30
 2252 01e8 15       		.uleb128 0x15
 2253 01e9 6A00     		.ascii	"j\000"
 2254 01eb 01       		.byte	0x1
 2255 01ec DD03     		.2byte	0x3dd
 2256 01ee 25000000 		.4byte	0x25
 2257 01f2 00       		.byte	0x0
 2258 01f3 00       		.byte	0x0
 2259 01f4 00       		.byte	0x0
 2260 01f5 16       		.uleb128 0x16
 2261 01f6 05020000 		.4byte	0x205
 2262 01fa 25000000 		.4byte	0x25
 2263 01fe 17       		.uleb128 0x17
 2264 01ff 76000000 		.4byte	0x76
 2265 0203 02       		.byte	0x2
 2266 0204 00       		.byte	0x0
 2267 0205 18       		.uleb128 0x18
 2268 0206 3E020000 		.4byte	0x23e
 2269 020a CC000000 		.4byte	.LASF27
 2270 020e 01       		.byte	0x1
 2271 020f B202     		.2byte	0x2b2
 2272 0211 A0010000 		.4byte	.LFB13
ARM GAS  /cygdrive/c/DOCUME~1/witaj/USTAWI~1/Temp/ccGe29Ta.s 			page 59


 2273 0215 F8010000 		.4byte	.LFE13
 2274 0219 74010000 		.4byte	.LLST11
 2275 021d 15       		.uleb128 0x15
 2276 021e 7800     		.ascii	"x\000"
 2277 0220 01       		.byte	0x1
 2278 0221 B302     		.2byte	0x2b3
 2279 0223 25000000 		.4byte	0x25
 2280 0227 15       		.uleb128 0x15
 2281 0228 7900     		.ascii	"y\000"
 2282 022a 01       		.byte	0x1
 2283 022b B302     		.2byte	0x2b3
 2284 022d 25000000 		.4byte	0x25
 2285 0231 11       		.uleb128 0x11
 2286 0232 71020000 		.4byte	.LASF28
 2287 0236 01       		.byte	0x1
 2288 0237 B302     		.2byte	0x2b3
 2289 0239 25000000 		.4byte	0x25
 2290 023d 00       		.byte	0x0
 2291 023e 19       		.uleb128 0x19
 2292 023f 3E000000 		.4byte	.LASF30
 2293 0243 01       		.byte	0x1
 2294 0244 F801     		.2byte	0x1f8
 2295 0246 01       		.byte	0x1
 2296 0247 F8010000 		.4byte	.LFB3
 2297 024b C4020000 		.4byte	.LFE3
 2298 024f 93010000 		.4byte	.LLST12
 2299 0253 19       		.uleb128 0x19
 2300 0254 B7020000 		.4byte	.LASF31
 2301 0258 01       		.byte	0x1
 2302 0259 DA01     		.2byte	0x1da
 2303 025b 01       		.byte	0x1
 2304 025c C4020000 		.4byte	.LFB2
 2305 0260 84030000 		.4byte	.LFE2
 2306 0264 B2010000 		.4byte	.LLST13
 2307 0268 18       		.uleb128 0x18
 2308 0269 B1020000 		.4byte	0x2b1
 2309 026d 0C010000 		.4byte	.LASF32
 2310 0271 01       		.byte	0x1
 2311 0272 5702     		.2byte	0x257
 2312 0274 84030000 		.4byte	.LFB10
 2313 0278 EC030000 		.4byte	.LFE10
 2314 027c D1010000 		.4byte	.LLST14
 2315 0280 15       		.uleb128 0x15
 2316 0281 6A00     		.ascii	"j\000"
 2317 0283 01       		.byte	0x1
 2318 0284 5802     		.2byte	0x258
 2319 0286 69000000 		.4byte	0x69
 2320 028a 0F       		.uleb128 0xf
 2321 028b 6900     		.ascii	"i\000"
 2322 028d 01       		.byte	0x1
 2323 028e 5802     		.2byte	0x258
 2324 0290 69000000 		.4byte	0x69
 2325 0294 08020000 		.4byte	.LLST15
 2326 0298 11       		.uleb128 0x11
 2327 0299 51000000 		.4byte	.LASF33
 2328 029d 01       		.byte	0x1
 2329 029e 5902     		.2byte	0x259
ARM GAS  /cygdrive/c/DOCUME~1/witaj/USTAWI~1/Temp/ccGe29Ta.s 			page 60


 2330 02a0 69000000 		.4byte	0x69
 2331 02a4 11       		.uleb128 0x11
 2332 02a5 D5000000 		.4byte	.LASF34
 2333 02a9 01       		.byte	0x1
 2334 02aa 5A02     		.2byte	0x25a
 2335 02ac B1020000 		.4byte	0x2b1
 2336 02b0 00       		.byte	0x0
 2337 02b1 16       		.uleb128 0x16
 2338 02b2 C0020000 		.4byte	0x2c0
 2339 02b6 25000000 		.4byte	0x25
 2340 02ba 1A       		.uleb128 0x1a
 2341 02bb 76000000 		.4byte	0x76
 2342 02bf 00       		.byte	0x0
 2343 02c0 1B       		.uleb128 0x1b
 2344 02c1 F4020000 		.4byte	0x2f4
 2345 02c5 8A020000 		.4byte	.LASF35
 2346 02c9 01       		.byte	0x1
 2347 02ca C202     		.2byte	0x2c2
 2348 02cc 25000000 		.4byte	0x25
 2349 02d0 01       		.byte	0x1
 2350 02d1 11       		.uleb128 0x11
 2351 02d2 00000000 		.4byte	.LASF36
 2352 02d6 01       		.byte	0x1
 2353 02d7 C302     		.2byte	0x2c3
 2354 02d9 25000000 		.4byte	0x25
 2355 02dd 11       		.uleb128 0x11
 2356 02de 08000000 		.4byte	.LASF37
 2357 02e2 01       		.byte	0x1
 2358 02e3 C402     		.2byte	0x2c4
 2359 02e5 25000000 		.4byte	0x25
 2360 02e9 15       		.uleb128 0x15
 2361 02ea 6900     		.ascii	"i\000"
 2362 02ec 01       		.byte	0x1
 2363 02ed C502     		.2byte	0x2c5
 2364 02ef 25000000 		.4byte	0x25
 2365 02f3 00       		.byte	0x0
 2366 02f4 1C       		.uleb128 0x1c
 2367 02f5 CC010000 		.4byte	.LASF38
 2368 02f9 01       		.byte	0x1
 2369 02fa 6B02     		.2byte	0x26b
 2370 02fc 01       		.byte	0x1
 2371 02fd 0B       		.uleb128 0xb
 2372 02fe CB030000 		.4byte	0x3cb
 2373 0302 BA000000 		.4byte	.LASF39
 2374 0306 01       		.byte	0x1
 2375 0307 7B02     		.2byte	0x27b
 2376 0309 01       		.byte	0x1
 2377 030a EC030000 		.4byte	.LFB12
 2378 030e 1C050000 		.4byte	.LFE12
 2379 0312 26020000 		.4byte	.LLST16
 2380 0316 1D       		.uleb128 0x1d
 2381 0317 7800     		.ascii	"x\000"
 2382 0319 01       		.byte	0x1
 2383 031a 7A02     		.2byte	0x27a
 2384 031c 25000000 		.4byte	0x25
 2385 0320 51020000 		.4byte	.LLST17
 2386 0324 1D       		.uleb128 0x1d
ARM GAS  /cygdrive/c/DOCUME~1/witaj/USTAWI~1/Temp/ccGe29Ta.s 			page 61


 2387 0325 7900     		.ascii	"y\000"
 2388 0327 01       		.byte	0x1
 2389 0328 7A02     		.2byte	0x27a
 2390 032a 25000000 		.4byte	0x25
 2391 032e 64020000 		.4byte	.LLST18
 2392 0332 0C       		.uleb128 0xc
 2393 0333 E0010000 		.4byte	.LASF40
 2394 0337 01       		.byte	0x1
 2395 0338 7A02     		.2byte	0x27a
 2396 033a 25000000 		.4byte	0x25
 2397 033e B9020000 		.4byte	.LLST19
 2398 0342 10       		.uleb128 0x10
 2399 0343 00000000 		.4byte	.LASF36
 2400 0347 01       		.byte	0x1
 2401 0348 7C02     		.2byte	0x27c
 2402 034a 69000000 		.4byte	0x69
 2403 034e 02       		.byte	0x2
 2404 034f 91       		.byte	0x91
 2405 0350 70       		.sleb128 -16
 2406 0351 10       		.uleb128 0x10
 2407 0352 08000000 		.4byte	.LASF37
 2408 0356 01       		.byte	0x1
 2409 0357 7D02     		.2byte	0x27d
 2410 0359 69000000 		.4byte	0x69
 2411 035d 02       		.byte	0x2
 2412 035e 91       		.byte	0x91
 2413 035f 74       		.sleb128 -12
 2414 0360 1E       		.uleb128 0x1e
 2415 0361 9A030000 		.4byte	0x39a
 2416 0365 C0020000 		.4byte	0x2c0
 2417 0369 30040000 		.4byte	.LBB18
 2418 036d 9E040000 		.4byte	.LBE18
 2419 0371 01       		.byte	0x1
 2420 0372 9102     		.2byte	0x291
 2421 0374 1F       		.uleb128 0x1f
 2422 0375 30040000 		.4byte	.LBB19
 2423 0379 9E040000 		.4byte	.LBE19
 2424 037d 20       		.uleb128 0x20
 2425 037e D1020000 		.4byte	0x2d1
 2426 0382 D7020000 		.4byte	.LLST20
 2427 0386 20       		.uleb128 0x20
 2428 0387 DD020000 		.4byte	0x2dd
 2429 038b EA020000 		.4byte	.LLST21
 2430 038f 20       		.uleb128 0x20
 2431 0390 E9020000 		.4byte	0x2e9
 2432 0394 FD020000 		.4byte	.LLST22
 2433 0398 00       		.byte	0x0
 2434 0399 00       		.byte	0x0
 2435 039a 21       		.uleb128 0x21
 2436 039b F4020000 		.4byte	0x2f4
 2437 039f CC040000 		.4byte	.LBB20
 2438 03a3 D2040000 		.4byte	.LBE20
 2439 03a7 01       		.byte	0x1
 2440 03a8 A202     		.2byte	0x2a2
 2441 03aa 22       		.uleb128 0x22
 2442 03ab A0000000 		.4byte	0xa0
 2443 03af E2040000 		.4byte	.LBB22
ARM GAS  /cygdrive/c/DOCUME~1/witaj/USTAWI~1/Temp/ccGe29Ta.s 			page 62


 2444 03b3 F6040000 		.4byte	.LBE22
 2445 03b7 01       		.byte	0x1
 2446 03b8 AD02     		.2byte	0x2ad
 2447 03ba 23       		.uleb128 0x23
 2448 03bb C2000000 		.4byte	0xc2
 2449 03bf 23       		.uleb128 0x23
 2450 03c0 B8000000 		.4byte	0xb8
 2451 03c4 23       		.uleb128 0x23
 2452 03c5 AE000000 		.4byte	0xae
 2453 03c9 00       		.byte	0x0
 2454 03ca 00       		.byte	0x0
 2455 03cb 0E       		.uleb128 0xe
 2456 03cc 06040000 		.4byte	0x406
 2457 03d0 01       		.byte	0x1
 2458 03d1 41010000 		.4byte	.LASF42
 2459 03d5 01       		.byte	0x1
 2460 03d6 F002     		.2byte	0x2f0
 2461 03d8 01       		.byte	0x1
 2462 03d9 1C050000 		.4byte	.LFB17
 2463 03dd DC050000 		.4byte	.LFE17
 2464 03e1 1C030000 		.4byte	.LLST23
 2465 03e5 0C       		.uleb128 0xc
 2466 03e6 6A020000 		.4byte	.LASF43
 2467 03ea 01       		.byte	0x1
 2468 03eb EF02     		.2byte	0x2ef
 2469 03ed 25000000 		.4byte	0x25
 2470 03f1 3B030000 		.4byte	.LLST24
 2471 03f5 21       		.uleb128 0x21
 2472 03f6 CF000000 		.4byte	0xcf
 2473 03fa BE050000 		.4byte	.LBB24
 2474 03fe C4050000 		.4byte	.LBE24
 2475 0402 01       		.byte	0x1
 2476 0403 2103     		.2byte	0x321
 2477 0405 00       		.byte	0x0
 2478 0406 07       		.uleb128 0x7
 2479 0407 35040000 		.4byte	0x435
 2480 040b 10000000 		.4byte	.LASF44
 2481 040f 01       		.byte	0x1
 2482 0410 4102     		.2byte	0x241
 2483 0412 01       		.byte	0x1
 2484 0413 01       		.byte	0x1
 2485 0414 09       		.uleb128 0x9
 2486 0415 C6010000 		.4byte	.LASF12
 2487 0419 01       		.byte	0x1
 2488 041a 4002     		.2byte	0x240
 2489 041c 25000000 		.4byte	0x25
 2490 0420 15       		.uleb128 0x15
 2491 0421 6900     		.ascii	"i\000"
 2492 0423 01       		.byte	0x1
 2493 0424 4202     		.2byte	0x242
 2494 0426 25000000 		.4byte	0x25
 2495 042a 15       		.uleb128 0x15
 2496 042b 6A00     		.ascii	"j\000"
 2497 042d 01       		.byte	0x1
 2498 042e 4202     		.2byte	0x242
 2499 0430 25000000 		.4byte	0x25
 2500 0434 00       		.byte	0x0
ARM GAS  /cygdrive/c/DOCUME~1/witaj/USTAWI~1/Temp/ccGe29Ta.s 			page 63


 2501 0435 07       		.uleb128 0x7
 2502 0436 64040000 		.4byte	0x464
 2503 043a 5B020000 		.4byte	.LASF45
 2504 043e 01       		.byte	0x1
 2505 043f 3302     		.2byte	0x233
 2506 0441 01       		.byte	0x1
 2507 0442 01       		.byte	0x1
 2508 0443 11       		.uleb128 0x11
 2509 0444 3D020000 		.4byte	.LASF46
 2510 0448 01       		.byte	0x1
 2511 0449 3402     		.2byte	0x234
 2512 044b 25000000 		.4byte	0x25
 2513 044f 15       		.uleb128 0x15
 2514 0450 6900     		.ascii	"i\000"
 2515 0452 01       		.byte	0x1
 2516 0453 3502     		.2byte	0x235
 2517 0455 25000000 		.4byte	0x25
 2518 0459 15       		.uleb128 0x15
 2519 045a 6A00     		.ascii	"j\000"
 2520 045c 01       		.byte	0x1
 2521 045d 3502     		.2byte	0x235
 2522 045f 25000000 		.4byte	0x25
 2523 0463 00       		.byte	0x0
 2524 0464 0E       		.uleb128 0xe
 2525 0465 19050000 		.4byte	0x519
 2526 0469 01       		.byte	0x1
 2527 046a 47000000 		.4byte	.LASF47
 2528 046e 01       		.byte	0x1
 2529 046f 2F03     		.2byte	0x32f
 2530 0471 01       		.byte	0x1
 2531 0472 DC050000 		.4byte	.LFB18
 2532 0476 EC060000 		.4byte	.LFE18
 2533 047a 9B030000 		.4byte	.LLST25
 2534 047e 1E       		.uleb128 0x1e
 2535 047f B4040000 		.4byte	0x4b4
 2536 0483 06040000 		.4byte	0x406
 2537 0487 0E060000 		.4byte	.LBB33
 2538 048b 36060000 		.4byte	.LBE33
 2539 048f 01       		.byte	0x1
 2540 0490 3803     		.2byte	0x338
 2541 0492 23       		.uleb128 0x23
 2542 0493 14040000 		.4byte	0x414
 2543 0497 1F       		.uleb128 0x1f
 2544 0498 0E060000 		.4byte	.LBB34
 2545 049c 36060000 		.4byte	.LBE34
 2546 04a0 20       		.uleb128 0x20
 2547 04a1 20040000 		.4byte	0x420
 2548 04a5 C6030000 		.4byte	.LLST26
 2549 04a9 20       		.uleb128 0x20
 2550 04aa 2A040000 		.4byte	0x42a
 2551 04ae E4030000 		.4byte	.LLST27
 2552 04b2 00       		.byte	0x0
 2553 04b3 00       		.byte	0x0
 2554 04b4 1E       		.uleb128 0x1e
 2555 04b5 D8040000 		.4byte	0x4d8
 2556 04b9 A0000000 		.4byte	0xa0
 2557 04bd 36060000 		.4byte	.LBB35
ARM GAS  /cygdrive/c/DOCUME~1/witaj/USTAWI~1/Temp/ccGe29Ta.s 			page 64


 2558 04c1 48060000 		.4byte	.LBE35
 2559 04c5 01       		.byte	0x1
 2560 04c6 3903     		.2byte	0x339
 2561 04c8 23       		.uleb128 0x23
 2562 04c9 C2000000 		.4byte	0xc2
 2563 04cd 23       		.uleb128 0x23
 2564 04ce B8000000 		.4byte	0xb8
 2565 04d2 23       		.uleb128 0x23
 2566 04d3 AE000000 		.4byte	0xae
 2567 04d7 00       		.byte	0x0
 2568 04d8 1F       		.uleb128 0x1f
 2569 04d9 66060000 		.4byte	.LBB37
 2570 04dd EC060000 		.4byte	.LBE37
 2571 04e1 11       		.uleb128 0x11
 2572 04e2 6A020000 		.4byte	.LASF43
 2573 04e6 01       		.byte	0x1
 2574 04e7 4503     		.2byte	0x345
 2575 04e9 25000000 		.4byte	0x25
 2576 04ed 22       		.uleb128 0x22
 2577 04ee 35040000 		.4byte	0x435
 2578 04f2 8C060000 		.4byte	.LBB38
 2579 04f6 EC060000 		.4byte	.LBE38
 2580 04fa 01       		.byte	0x1
 2581 04fb 4F03     		.2byte	0x34f
 2582 04fd 1F       		.uleb128 0x1f
 2583 04fe 8C060000 		.4byte	.LBB39
 2584 0502 EC060000 		.4byte	.LBE39
 2585 0506 24       		.uleb128 0x24
 2586 0507 43040000 		.4byte	0x443
 2587 050b 24       		.uleb128 0x24
 2588 050c 4F040000 		.4byte	0x44f
 2589 0510 24       		.uleb128 0x24
 2590 0511 59040000 		.4byte	0x459
 2591 0515 00       		.byte	0x0
 2592 0516 00       		.byte	0x0
 2593 0517 00       		.byte	0x0
 2594 0518 00       		.byte	0x0
 2595 0519 25       		.uleb128 0x25
 2596 051a 09020000 		.4byte	.LASF48
 2597 051e 01       		.byte	0x1
 2598 051f 45       		.byte	0x45
 2599 0520 25000000 		.4byte	0x25
 2600 0524 26       		.uleb128 0x26
 2601 0525 02010000 		.4byte	.LASF49
 2602 0529 01       		.byte	0x1
 2603 052a 46       		.byte	0x46
 2604 052b 25000000 		.4byte	0x25
 2605 052f 05       		.byte	0x5
 2606 0530 03       		.byte	0x3
 2607 0531 0C000000 		.4byte	snakeXPos
 2608 0535 26       		.uleb128 0x26
 2609 0536 9C010000 		.4byte	.LASF50
 2610 053a 01       		.byte	0x1
 2611 053b 47       		.byte	0x47
 2612 053c 25000000 		.4byte	0x25
 2613 0540 05       		.byte	0x5
 2614 0541 03       		.byte	0x3
ARM GAS  /cygdrive/c/DOCUME~1/witaj/USTAWI~1/Temp/ccGe29Ta.s 			page 65


 2615 0542 0D000000 		.4byte	snakeYPos
 2616 0546 26       		.uleb128 0x26
 2617 0547 EA010000 		.4byte	.LASF51
 2618 054b 01       		.byte	0x1
 2619 054c 48       		.byte	0x48
 2620 054d 25000000 		.4byte	0x25
 2621 0551 05       		.byte	0x5
 2622 0552 03       		.byte	0x3
 2623 0553 0E000000 		.4byte	snakeSize
 2624 0557 26       		.uleb128 0x26
 2625 0558 99020000 		.4byte	.LASF52
 2626 055c 01       		.byte	0x1
 2627 055d 49       		.byte	0x49
 2628 055e 25000000 		.4byte	0x25
 2629 0562 05       		.byte	0x5
 2630 0563 03       		.byte	0x3
 2631 0564 0F000000 		.4byte	lastKey
 2632 0568 26       		.uleb128 0x26
 2633 0569 3C010000 		.4byte	.LASF53
 2634 056d 01       		.byte	0x1
 2635 056e 4A       		.byte	0x4a
 2636 056f 25000000 		.4byte	0x25
 2637 0573 05       		.byte	0x5
 2638 0574 03       		.byte	0x3
 2639 0575 10000000 		.4byte	isOn
 2640 0579 26       		.uleb128 0x26
 2641 057a 14020000 		.4byte	.LASF54
 2642 057e 01       		.byte	0x1
 2643 057f 4C       		.byte	0x4c
 2644 0580 49000000 		.4byte	0x49
 2645 0584 05       		.byte	0x5
 2646 0585 03       		.byte	0x3
 2647 0586 14000000 		.4byte	timeVal
 2648 058a 16       		.uleb128 0x16
 2649 058b A0050000 		.4byte	0x5a0
 2650 058f 25000000 		.4byte	0x25
 2651 0593 17       		.uleb128 0x17
 2652 0594 76000000 		.4byte	0x76
 2653 0598 1F       		.byte	0x1f
 2654 0599 17       		.uleb128 0x17
 2655 059a 76000000 		.4byte	0x76
 2656 059e 1F       		.byte	0x1f
 2657 059f 00       		.byte	0x0
 2658 05a0 26       		.uleb128 0x26
 2659 05a1 9B000000 		.4byte	.LASF55
 2660 05a5 01       		.byte	0x1
 2661 05a6 4D       		.byte	0x4d
 2662 05a7 8A050000 		.4byte	0x58a
 2663 05ab 05       		.byte	0x5
 2664 05ac 03       		.byte	0x3
 2665 05ad 18000000 		.4byte	gameArena
 2666 05b1 16       		.uleb128 0x16
 2667 05b2 C1050000 		.4byte	0x5c1
 2668 05b6 25000000 		.4byte	0x25
 2669 05ba 17       		.uleb128 0x17
 2670 05bb 76000000 		.4byte	0x76
 2671 05bf 3F       		.byte	0x3f
ARM GAS  /cygdrive/c/DOCUME~1/witaj/USTAWI~1/Temp/ccGe29Ta.s 			page 66


 2672 05c0 00       		.byte	0x0
 2673 05c1 26       		.uleb128 0x26
 2674 05c2 D6010000 		.4byte	.LASF56
 2675 05c6 01       		.byte	0x1
 2676 05c7 4E       		.byte	0x4e
 2677 05c8 B1050000 		.4byte	0x5b1
 2678 05cc 05       		.byte	0x5
 2679 05cd 03       		.byte	0x3
 2680 05ce 18040000 		.4byte	snakeTail
 2681 05d2 26       		.uleb128 0x26
 2682 05d3 2F000000 		.4byte	.LASF57
 2683 05d7 01       		.byte	0x1
 2684 05d8 4F       		.byte	0x4f
 2685 05d9 25000000 		.4byte	0x25
 2686 05dd 05       		.byte	0x5
 2687 05de 03       		.byte	0x3
 2688 05df 58040000 		.4byte	snakeTailGuard
 2689 05e3 27       		.uleb128 0x27
 2690 05e4 A5000000 		.4byte	.LASF58
 2691 05e8 01       		.byte	0x1
 2692 05e9 D201     		.2byte	0x1d2
 2693 05eb 69000000 		.4byte	0x69
 2694 05ef 01       		.byte	0x1
 2695 05f0 05       		.byte	0x5
 2696 05f1 03       		.byte	0x3
 2697 05f2 00000000 		.4byte	toggle
 2698 05f6 27       		.uleb128 0x27
 2699 05f7 F4010000 		.4byte	.LASF59
 2700 05fb 01       		.byte	0x1
 2701 05fc D301     		.2byte	0x1d3
 2702 05fe 69000000 		.4byte	0x69
 2703 0602 01       		.byte	0x1
 2704 0603 05       		.byte	0x5
 2705 0604 03       		.byte	0x3
 2706 0605 00000000 		.4byte	count
 2707 0609 16       		.uleb128 0x16
 2708 060a 19060000 		.4byte	0x619
 2709 060e 37000000 		.4byte	0x37
 2710 0612 17       		.uleb128 0x17
 2711 0613 76000000 		.4byte	0x76
 2712 0617 07       		.byte	0x7
 2713 0618 00       		.byte	0x0
 2714 0619 27       		.uleb128 0x27
 2715 061a A1020000 		.4byte	.LASF60
 2716 061e 01       		.byte	0x1
 2717 061f D501     		.2byte	0x1d5
 2718 0621 09060000 		.4byte	0x609
 2719 0625 01       		.byte	0x1
 2720 0626 05       		.byte	0x5
 2721 0627 03       		.byte	0x3
 2722 0628 00000000 		.4byte	notes
 2723 062c 27       		.uleb128 0x27
 2724 062d FA010000 		.4byte	.LASF61
 2725 0631 01       		.byte	0x1
 2726 0632 D601     		.2byte	0x1d6
 2727 0634 69000000 		.4byte	0x69
 2728 0638 01       		.byte	0x1
ARM GAS  /cygdrive/c/DOCUME~1/witaj/USTAWI~1/Temp/ccGe29Ta.s 			page 67


 2729 0639 05       		.byte	0x5
 2730 063a 03       		.byte	0x3
 2731 063b 00000000 		.4byte	note
 2732 063f 00       		.byte	0x0
 2733              		.section	.debug_abbrev
 2734 0000 01       		.uleb128 0x1
 2735 0001 11       		.uleb128 0x11
 2736 0002 01       		.byte	0x1
 2737 0003 10       		.uleb128 0x10
 2738 0004 06       		.uleb128 0x6
 2739 0005 12       		.uleb128 0x12
 2740 0006 01       		.uleb128 0x1
 2741 0007 11       		.uleb128 0x11
 2742 0008 01       		.uleb128 0x1
 2743 0009 25       		.uleb128 0x25
 2744 000a 0E       		.uleb128 0xe
 2745 000b 13       		.uleb128 0x13
 2746 000c 0B       		.uleb128 0xb
 2747 000d 03       		.uleb128 0x3
 2748 000e 0E       		.uleb128 0xe
 2749 000f 1B       		.uleb128 0x1b
 2750 0010 0E       		.uleb128 0xe
 2751 0011 00       		.byte	0x0
 2752 0012 00       		.byte	0x0
 2753 0013 02       		.uleb128 0x2
 2754 0014 16       		.uleb128 0x16
 2755 0015 00       		.byte	0x0
 2756 0016 03       		.uleb128 0x3
 2757 0017 08       		.uleb128 0x8
 2758 0018 3A       		.uleb128 0x3a
 2759 0019 0B       		.uleb128 0xb
 2760 001a 3B       		.uleb128 0x3b
 2761 001b 0B       		.uleb128 0xb
 2762 001c 49       		.uleb128 0x49
 2763 001d 13       		.uleb128 0x13
 2764 001e 00       		.byte	0x0
 2765 001f 00       		.byte	0x0
 2766 0020 03       		.uleb128 0x3
 2767 0021 24       		.uleb128 0x24
 2768 0022 00       		.byte	0x0
 2769 0023 03       		.uleb128 0x3
 2770 0024 0E       		.uleb128 0xe
 2771 0025 0B       		.uleb128 0xb
 2772 0026 0B       		.uleb128 0xb
 2773 0027 3E       		.uleb128 0x3e
 2774 0028 0B       		.uleb128 0xb
 2775 0029 00       		.byte	0x0
 2776 002a 00       		.byte	0x0
 2777 002b 04       		.uleb128 0x4
 2778 002c 16       		.uleb128 0x16
 2779 002d 00       		.byte	0x0
 2780 002e 03       		.uleb128 0x3
 2781 002f 0E       		.uleb128 0xe
 2782 0030 3A       		.uleb128 0x3a
 2783 0031 0B       		.uleb128 0xb
 2784 0032 3B       		.uleb128 0x3b
 2785 0033 0B       		.uleb128 0xb
ARM GAS  /cygdrive/c/DOCUME~1/witaj/USTAWI~1/Temp/ccGe29Ta.s 			page 68


 2786 0034 49       		.uleb128 0x49
 2787 0035 13       		.uleb128 0x13
 2788 0036 00       		.byte	0x0
 2789 0037 00       		.byte	0x0
 2790 0038 05       		.uleb128 0x5
 2791 0039 24       		.uleb128 0x24
 2792 003a 00       		.byte	0x0
 2793 003b 03       		.uleb128 0x3
 2794 003c 08       		.uleb128 0x8
 2795 003d 0B       		.uleb128 0xb
 2796 003e 0B       		.uleb128 0xb
 2797 003f 3E       		.uleb128 0x3e
 2798 0040 0B       		.uleb128 0xb
 2799 0041 00       		.byte	0x0
 2800 0042 00       		.byte	0x0
 2801 0043 06       		.uleb128 0x6
 2802 0044 0F       		.uleb128 0xf
 2803 0045 00       		.byte	0x0
 2804 0046 0B       		.uleb128 0xb
 2805 0047 0B       		.uleb128 0xb
 2806 0048 49       		.uleb128 0x49
 2807 0049 13       		.uleb128 0x13
 2808 004a 00       		.byte	0x0
 2809 004b 00       		.byte	0x0
 2810 004c 07       		.uleb128 0x7
 2811 004d 2E       		.uleb128 0x2e
 2812 004e 01       		.byte	0x1
 2813 004f 01       		.uleb128 0x1
 2814 0050 13       		.uleb128 0x13
 2815 0051 03       		.uleb128 0x3
 2816 0052 0E       		.uleb128 0xe
 2817 0053 3A       		.uleb128 0x3a
 2818 0054 0B       		.uleb128 0xb
 2819 0055 3B       		.uleb128 0x3b
 2820 0056 05       		.uleb128 0x5
 2821 0057 27       		.uleb128 0x27
 2822 0058 0C       		.uleb128 0xc
 2823 0059 20       		.uleb128 0x20
 2824 005a 0B       		.uleb128 0xb
 2825 005b 00       		.byte	0x0
 2826 005c 00       		.byte	0x0
 2827 005d 08       		.uleb128 0x8
 2828 005e 05       		.uleb128 0x5
 2829 005f 00       		.byte	0x0
 2830 0060 03       		.uleb128 0x3
 2831 0061 08       		.uleb128 0x8
 2832 0062 3A       		.uleb128 0x3a
 2833 0063 0B       		.uleb128 0xb
 2834 0064 3B       		.uleb128 0x3b
 2835 0065 05       		.uleb128 0x5
 2836 0066 49       		.uleb128 0x49
 2837 0067 13       		.uleb128 0x13
 2838 0068 00       		.byte	0x0
 2839 0069 00       		.byte	0x0
 2840 006a 09       		.uleb128 0x9
 2841 006b 05       		.uleb128 0x5
 2842 006c 00       		.byte	0x0
ARM GAS  /cygdrive/c/DOCUME~1/witaj/USTAWI~1/Temp/ccGe29Ta.s 			page 69


 2843 006d 03       		.uleb128 0x3
 2844 006e 0E       		.uleb128 0xe
 2845 006f 3A       		.uleb128 0x3a
 2846 0070 0B       		.uleb128 0xb
 2847 0071 3B       		.uleb128 0x3b
 2848 0072 05       		.uleb128 0x5
 2849 0073 49       		.uleb128 0x49
 2850 0074 13       		.uleb128 0x13
 2851 0075 00       		.byte	0x0
 2852 0076 00       		.byte	0x0
 2853 0077 0A       		.uleb128 0xa
 2854 0078 2E       		.uleb128 0x2e
 2855 0079 00       		.byte	0x0
 2856 007a 03       		.uleb128 0x3
 2857 007b 0E       		.uleb128 0xe
 2858 007c 3A       		.uleb128 0x3a
 2859 007d 0B       		.uleb128 0xb
 2860 007e 3B       		.uleb128 0x3b
 2861 007f 05       		.uleb128 0x5
 2862 0080 27       		.uleb128 0x27
 2863 0081 0C       		.uleb128 0xc
 2864 0082 20       		.uleb128 0x20
 2865 0083 0B       		.uleb128 0xb
 2866 0084 00       		.byte	0x0
 2867 0085 00       		.byte	0x0
 2868 0086 0B       		.uleb128 0xb
 2869 0087 2E       		.uleb128 0x2e
 2870 0088 01       		.byte	0x1
 2871 0089 01       		.uleb128 0x1
 2872 008a 13       		.uleb128 0x13
 2873 008b 03       		.uleb128 0x3
 2874 008c 0E       		.uleb128 0xe
 2875 008d 3A       		.uleb128 0x3a
 2876 008e 0B       		.uleb128 0xb
 2877 008f 3B       		.uleb128 0x3b
 2878 0090 05       		.uleb128 0x5
 2879 0091 27       		.uleb128 0x27
 2880 0092 0C       		.uleb128 0xc
 2881 0093 11       		.uleb128 0x11
 2882 0094 01       		.uleb128 0x1
 2883 0095 12       		.uleb128 0x12
 2884 0096 01       		.uleb128 0x1
 2885 0097 40       		.uleb128 0x40
 2886 0098 06       		.uleb128 0x6
 2887 0099 00       		.byte	0x0
 2888 009a 00       		.byte	0x0
 2889 009b 0C       		.uleb128 0xc
 2890 009c 05       		.uleb128 0x5
 2891 009d 00       		.byte	0x0
 2892 009e 03       		.uleb128 0x3
 2893 009f 0E       		.uleb128 0xe
 2894 00a0 3A       		.uleb128 0x3a
 2895 00a1 0B       		.uleb128 0xb
 2896 00a2 3B       		.uleb128 0x3b
 2897 00a3 05       		.uleb128 0x5
 2898 00a4 49       		.uleb128 0x49
 2899 00a5 13       		.uleb128 0x13
ARM GAS  /cygdrive/c/DOCUME~1/witaj/USTAWI~1/Temp/ccGe29Ta.s 			page 70


 2900 00a6 02       		.uleb128 0x2
 2901 00a7 06       		.uleb128 0x6
 2902 00a8 00       		.byte	0x0
 2903 00a9 00       		.byte	0x0
 2904 00aa 0D       		.uleb128 0xd
 2905 00ab 2E       		.uleb128 0x2e
 2906 00ac 00       		.byte	0x0
 2907 00ad 3F       		.uleb128 0x3f
 2908 00ae 0C       		.uleb128 0xc
 2909 00af 03       		.uleb128 0x3
 2910 00b0 0E       		.uleb128 0xe
 2911 00b1 3A       		.uleb128 0x3a
 2912 00b2 0B       		.uleb128 0xb
 2913 00b3 3B       		.uleb128 0x3b
 2914 00b4 05       		.uleb128 0x5
 2915 00b5 11       		.uleb128 0x11
 2916 00b6 01       		.uleb128 0x1
 2917 00b7 12       		.uleb128 0x12
 2918 00b8 01       		.uleb128 0x1
 2919 00b9 40       		.uleb128 0x40
 2920 00ba 0A       		.uleb128 0xa
 2921 00bb 00       		.byte	0x0
 2922 00bc 00       		.byte	0x0
 2923 00bd 0E       		.uleb128 0xe
 2924 00be 2E       		.uleb128 0x2e
 2925 00bf 01       		.byte	0x1
 2926 00c0 01       		.uleb128 0x1
 2927 00c1 13       		.uleb128 0x13
 2928 00c2 3F       		.uleb128 0x3f
 2929 00c3 0C       		.uleb128 0xc
 2930 00c4 03       		.uleb128 0x3
 2931 00c5 0E       		.uleb128 0xe
 2932 00c6 3A       		.uleb128 0x3a
 2933 00c7 0B       		.uleb128 0xb
 2934 00c8 3B       		.uleb128 0x3b
 2935 00c9 05       		.uleb128 0x5
 2936 00ca 27       		.uleb128 0x27
 2937 00cb 0C       		.uleb128 0xc
 2938 00cc 11       		.uleb128 0x11
 2939 00cd 01       		.uleb128 0x1
 2940 00ce 12       		.uleb128 0x12
 2941 00cf 01       		.uleb128 0x1
 2942 00d0 40       		.uleb128 0x40
 2943 00d1 06       		.uleb128 0x6
 2944 00d2 00       		.byte	0x0
 2945 00d3 00       		.byte	0x0
 2946 00d4 0F       		.uleb128 0xf
 2947 00d5 34       		.uleb128 0x34
 2948 00d6 00       		.byte	0x0
 2949 00d7 03       		.uleb128 0x3
 2950 00d8 08       		.uleb128 0x8
 2951 00d9 3A       		.uleb128 0x3a
 2952 00da 0B       		.uleb128 0xb
 2953 00db 3B       		.uleb128 0x3b
 2954 00dc 05       		.uleb128 0x5
 2955 00dd 49       		.uleb128 0x49
 2956 00de 13       		.uleb128 0x13
ARM GAS  /cygdrive/c/DOCUME~1/witaj/USTAWI~1/Temp/ccGe29Ta.s 			page 71


 2957 00df 02       		.uleb128 0x2
 2958 00e0 06       		.uleb128 0x6
 2959 00e1 00       		.byte	0x0
 2960 00e2 00       		.byte	0x0
 2961 00e3 10       		.uleb128 0x10
 2962 00e4 34       		.uleb128 0x34
 2963 00e5 00       		.byte	0x0
 2964 00e6 03       		.uleb128 0x3
 2965 00e7 0E       		.uleb128 0xe
 2966 00e8 3A       		.uleb128 0x3a
 2967 00e9 0B       		.uleb128 0xb
 2968 00ea 3B       		.uleb128 0x3b
 2969 00eb 05       		.uleb128 0x5
 2970 00ec 49       		.uleb128 0x49
 2971 00ed 13       		.uleb128 0x13
 2972 00ee 02       		.uleb128 0x2
 2973 00ef 0A       		.uleb128 0xa
 2974 00f0 00       		.byte	0x0
 2975 00f1 00       		.byte	0x0
 2976 00f2 11       		.uleb128 0x11
 2977 00f3 34       		.uleb128 0x34
 2978 00f4 00       		.byte	0x0
 2979 00f5 03       		.uleb128 0x3
 2980 00f6 0E       		.uleb128 0xe
 2981 00f7 3A       		.uleb128 0x3a
 2982 00f8 0B       		.uleb128 0xb
 2983 00f9 3B       		.uleb128 0x3b
 2984 00fa 05       		.uleb128 0x5
 2985 00fb 49       		.uleb128 0x49
 2986 00fc 13       		.uleb128 0x13
 2987 00fd 00       		.byte	0x0
 2988 00fe 00       		.byte	0x0
 2989 00ff 12       		.uleb128 0x12
 2990 0100 0B       		.uleb128 0xb
 2991 0101 01       		.byte	0x1
 2992 0102 01       		.uleb128 0x1
 2993 0103 13       		.uleb128 0x13
 2994 0104 55       		.uleb128 0x55
 2995 0105 06       		.uleb128 0x6
 2996 0106 00       		.byte	0x0
 2997 0107 00       		.byte	0x0
 2998 0108 13       		.uleb128 0x13
 2999 0109 0B       		.uleb128 0xb
 3000 010a 01       		.byte	0x1
 3001 010b 55       		.uleb128 0x55
 3002 010c 06       		.uleb128 0x6
 3003 010d 00       		.byte	0x0
 3004 010e 00       		.byte	0x0
 3005 010f 14       		.uleb128 0x14
 3006 0110 34       		.uleb128 0x34
 3007 0111 00       		.byte	0x0
 3008 0112 03       		.uleb128 0x3
 3009 0113 0E       		.uleb128 0xe
 3010 0114 3A       		.uleb128 0x3a
 3011 0115 0B       		.uleb128 0xb
 3012 0116 3B       		.uleb128 0x3b
 3013 0117 05       		.uleb128 0x5
ARM GAS  /cygdrive/c/DOCUME~1/witaj/USTAWI~1/Temp/ccGe29Ta.s 			page 72


 3014 0118 49       		.uleb128 0x49
 3015 0119 13       		.uleb128 0x13
 3016 011a 02       		.uleb128 0x2
 3017 011b 06       		.uleb128 0x6
 3018 011c 00       		.byte	0x0
 3019 011d 00       		.byte	0x0
 3020 011e 15       		.uleb128 0x15
 3021 011f 34       		.uleb128 0x34
 3022 0120 00       		.byte	0x0
 3023 0121 03       		.uleb128 0x3
 3024 0122 08       		.uleb128 0x8
 3025 0123 3A       		.uleb128 0x3a
 3026 0124 0B       		.uleb128 0xb
 3027 0125 3B       		.uleb128 0x3b
 3028 0126 05       		.uleb128 0x5
 3029 0127 49       		.uleb128 0x49
 3030 0128 13       		.uleb128 0x13
 3031 0129 00       		.byte	0x0
 3032 012a 00       		.byte	0x0
 3033 012b 16       		.uleb128 0x16
 3034 012c 01       		.uleb128 0x1
 3035 012d 01       		.byte	0x1
 3036 012e 01       		.uleb128 0x1
 3037 012f 13       		.uleb128 0x13
 3038 0130 49       		.uleb128 0x49
 3039 0131 13       		.uleb128 0x13
 3040 0132 00       		.byte	0x0
 3041 0133 00       		.byte	0x0
 3042 0134 17       		.uleb128 0x17
 3043 0135 21       		.uleb128 0x21
 3044 0136 00       		.byte	0x0
 3045 0137 49       		.uleb128 0x49
 3046 0138 13       		.uleb128 0x13
 3047 0139 2F       		.uleb128 0x2f
 3048 013a 0B       		.uleb128 0xb
 3049 013b 00       		.byte	0x0
 3050 013c 00       		.byte	0x0
 3051 013d 18       		.uleb128 0x18
 3052 013e 2E       		.uleb128 0x2e
 3053 013f 01       		.byte	0x1
 3054 0140 01       		.uleb128 0x1
 3055 0141 13       		.uleb128 0x13
 3056 0142 03       		.uleb128 0x3
 3057 0143 0E       		.uleb128 0xe
 3058 0144 3A       		.uleb128 0x3a
 3059 0145 0B       		.uleb128 0xb
 3060 0146 3B       		.uleb128 0x3b
 3061 0147 05       		.uleb128 0x5
 3062 0148 11       		.uleb128 0x11
 3063 0149 01       		.uleb128 0x1
 3064 014a 12       		.uleb128 0x12
 3065 014b 01       		.uleb128 0x1
 3066 014c 40       		.uleb128 0x40
 3067 014d 06       		.uleb128 0x6
 3068 014e 00       		.byte	0x0
 3069 014f 00       		.byte	0x0
 3070 0150 19       		.uleb128 0x19
ARM GAS  /cygdrive/c/DOCUME~1/witaj/USTAWI~1/Temp/ccGe29Ta.s 			page 73


 3071 0151 2E       		.uleb128 0x2e
 3072 0152 00       		.byte	0x0
 3073 0153 03       		.uleb128 0x3
 3074 0154 0E       		.uleb128 0xe
 3075 0155 3A       		.uleb128 0x3a
 3076 0156 0B       		.uleb128 0xb
 3077 0157 3B       		.uleb128 0x3b
 3078 0158 05       		.uleb128 0x5
 3079 0159 27       		.uleb128 0x27
 3080 015a 0C       		.uleb128 0xc
 3081 015b 11       		.uleb128 0x11
 3082 015c 01       		.uleb128 0x1
 3083 015d 12       		.uleb128 0x12
 3084 015e 01       		.uleb128 0x1
 3085 015f 40       		.uleb128 0x40
 3086 0160 06       		.uleb128 0x6
 3087 0161 00       		.byte	0x0
 3088 0162 00       		.byte	0x0
 3089 0163 1A       		.uleb128 0x1a
 3090 0164 21       		.uleb128 0x21
 3091 0165 00       		.byte	0x0
 3092 0166 49       		.uleb128 0x49
 3093 0167 13       		.uleb128 0x13
 3094 0168 00       		.byte	0x0
 3095 0169 00       		.byte	0x0
 3096 016a 1B       		.uleb128 0x1b
 3097 016b 2E       		.uleb128 0x2e
 3098 016c 01       		.byte	0x1
 3099 016d 01       		.uleb128 0x1
 3100 016e 13       		.uleb128 0x13
 3101 016f 03       		.uleb128 0x3
 3102 0170 0E       		.uleb128 0xe
 3103 0171 3A       		.uleb128 0x3a
 3104 0172 0B       		.uleb128 0xb
 3105 0173 3B       		.uleb128 0x3b
 3106 0174 05       		.uleb128 0x5
 3107 0175 49       		.uleb128 0x49
 3108 0176 13       		.uleb128 0x13
 3109 0177 20       		.uleb128 0x20
 3110 0178 0B       		.uleb128 0xb
 3111 0179 00       		.byte	0x0
 3112 017a 00       		.byte	0x0
 3113 017b 1C       		.uleb128 0x1c
 3114 017c 2E       		.uleb128 0x2e
 3115 017d 00       		.byte	0x0
 3116 017e 03       		.uleb128 0x3
 3117 017f 0E       		.uleb128 0xe
 3118 0180 3A       		.uleb128 0x3a
 3119 0181 0B       		.uleb128 0xb
 3120 0182 3B       		.uleb128 0x3b
 3121 0183 05       		.uleb128 0x5
 3122 0184 20       		.uleb128 0x20
 3123 0185 0B       		.uleb128 0xb
 3124 0186 00       		.byte	0x0
 3125 0187 00       		.byte	0x0
 3126 0188 1D       		.uleb128 0x1d
 3127 0189 05       		.uleb128 0x5
ARM GAS  /cygdrive/c/DOCUME~1/witaj/USTAWI~1/Temp/ccGe29Ta.s 			page 74


 3128 018a 00       		.byte	0x0
 3129 018b 03       		.uleb128 0x3
 3130 018c 08       		.uleb128 0x8
 3131 018d 3A       		.uleb128 0x3a
 3132 018e 0B       		.uleb128 0xb
 3133 018f 3B       		.uleb128 0x3b
 3134 0190 05       		.uleb128 0x5
 3135 0191 49       		.uleb128 0x49
 3136 0192 13       		.uleb128 0x13
 3137 0193 02       		.uleb128 0x2
 3138 0194 06       		.uleb128 0x6
 3139 0195 00       		.byte	0x0
 3140 0196 00       		.byte	0x0
 3141 0197 1E       		.uleb128 0x1e
 3142 0198 1D       		.uleb128 0x1d
 3143 0199 01       		.byte	0x1
 3144 019a 01       		.uleb128 0x1
 3145 019b 13       		.uleb128 0x13
 3146 019c 31       		.uleb128 0x31
 3147 019d 13       		.uleb128 0x13
 3148 019e 11       		.uleb128 0x11
 3149 019f 01       		.uleb128 0x1
 3150 01a0 12       		.uleb128 0x12
 3151 01a1 01       		.uleb128 0x1
 3152 01a2 58       		.uleb128 0x58
 3153 01a3 0B       		.uleb128 0xb
 3154 01a4 59       		.uleb128 0x59
 3155 01a5 05       		.uleb128 0x5
 3156 01a6 00       		.byte	0x0
 3157 01a7 00       		.byte	0x0
 3158 01a8 1F       		.uleb128 0x1f
 3159 01a9 0B       		.uleb128 0xb
 3160 01aa 01       		.byte	0x1
 3161 01ab 11       		.uleb128 0x11
 3162 01ac 01       		.uleb128 0x1
 3163 01ad 12       		.uleb128 0x12
 3164 01ae 01       		.uleb128 0x1
 3165 01af 00       		.byte	0x0
 3166 01b0 00       		.byte	0x0
 3167 01b1 20       		.uleb128 0x20
 3168 01b2 34       		.uleb128 0x34
 3169 01b3 00       		.byte	0x0
 3170 01b4 31       		.uleb128 0x31
 3171 01b5 13       		.uleb128 0x13
 3172 01b6 02       		.uleb128 0x2
 3173 01b7 06       		.uleb128 0x6
 3174 01b8 00       		.byte	0x0
 3175 01b9 00       		.byte	0x0
 3176 01ba 21       		.uleb128 0x21
 3177 01bb 1D       		.uleb128 0x1d
 3178 01bc 00       		.byte	0x0
 3179 01bd 31       		.uleb128 0x31
 3180 01be 13       		.uleb128 0x13
 3181 01bf 11       		.uleb128 0x11
 3182 01c0 01       		.uleb128 0x1
 3183 01c1 12       		.uleb128 0x12
 3184 01c2 01       		.uleb128 0x1
ARM GAS  /cygdrive/c/DOCUME~1/witaj/USTAWI~1/Temp/ccGe29Ta.s 			page 75


 3185 01c3 58       		.uleb128 0x58
 3186 01c4 0B       		.uleb128 0xb
 3187 01c5 59       		.uleb128 0x59
 3188 01c6 05       		.uleb128 0x5
 3189 01c7 00       		.byte	0x0
 3190 01c8 00       		.byte	0x0
 3191 01c9 22       		.uleb128 0x22
 3192 01ca 1D       		.uleb128 0x1d
 3193 01cb 01       		.byte	0x1
 3194 01cc 31       		.uleb128 0x31
 3195 01cd 13       		.uleb128 0x13
 3196 01ce 11       		.uleb128 0x11
 3197 01cf 01       		.uleb128 0x1
 3198 01d0 12       		.uleb128 0x12
 3199 01d1 01       		.uleb128 0x1
 3200 01d2 58       		.uleb128 0x58
 3201 01d3 0B       		.uleb128 0xb
 3202 01d4 59       		.uleb128 0x59
 3203 01d5 05       		.uleb128 0x5
 3204 01d6 00       		.byte	0x0
 3205 01d7 00       		.byte	0x0
 3206 01d8 23       		.uleb128 0x23
 3207 01d9 05       		.uleb128 0x5
 3208 01da 00       		.byte	0x0
 3209 01db 31       		.uleb128 0x31
 3210 01dc 13       		.uleb128 0x13
 3211 01dd 00       		.byte	0x0
 3212 01de 00       		.byte	0x0
 3213 01df 24       		.uleb128 0x24
 3214 01e0 34       		.uleb128 0x34
 3215 01e1 00       		.byte	0x0
 3216 01e2 31       		.uleb128 0x31
 3217 01e3 13       		.uleb128 0x13
 3218 01e4 00       		.byte	0x0
 3219 01e5 00       		.byte	0x0
 3220 01e6 25       		.uleb128 0x25
 3221 01e7 34       		.uleb128 0x34
 3222 01e8 00       		.byte	0x0
 3223 01e9 03       		.uleb128 0x3
 3224 01ea 0E       		.uleb128 0xe
 3225 01eb 3A       		.uleb128 0x3a
 3226 01ec 0B       		.uleb128 0xb
 3227 01ed 3B       		.uleb128 0x3b
 3228 01ee 0B       		.uleb128 0xb
 3229 01ef 49       		.uleb128 0x49
 3230 01f0 13       		.uleb128 0x13
 3231 01f1 00       		.byte	0x0
 3232 01f2 00       		.byte	0x0
 3233 01f3 26       		.uleb128 0x26
 3234 01f4 34       		.uleb128 0x34
 3235 01f5 00       		.byte	0x0
 3236 01f6 03       		.uleb128 0x3
 3237 01f7 0E       		.uleb128 0xe
 3238 01f8 3A       		.uleb128 0x3a
 3239 01f9 0B       		.uleb128 0xb
 3240 01fa 3B       		.uleb128 0x3b
 3241 01fb 0B       		.uleb128 0xb
ARM GAS  /cygdrive/c/DOCUME~1/witaj/USTAWI~1/Temp/ccGe29Ta.s 			page 76


 3242 01fc 49       		.uleb128 0x49
 3243 01fd 13       		.uleb128 0x13
 3244 01fe 02       		.uleb128 0x2
 3245 01ff 0A       		.uleb128 0xa
 3246 0200 00       		.byte	0x0
 3247 0201 00       		.byte	0x0
 3248 0202 27       		.uleb128 0x27
 3249 0203 34       		.uleb128 0x34
 3250 0204 00       		.byte	0x0
 3251 0205 03       		.uleb128 0x3
 3252 0206 0E       		.uleb128 0xe
 3253 0207 3A       		.uleb128 0x3a
 3254 0208 0B       		.uleb128 0xb
 3255 0209 3B       		.uleb128 0x3b
 3256 020a 05       		.uleb128 0x5
 3257 020b 49       		.uleb128 0x49
 3258 020c 13       		.uleb128 0x13
 3259 020d 3F       		.uleb128 0x3f
 3260 020e 0C       		.uleb128 0xc
 3261 020f 02       		.uleb128 0x2
 3262 0210 0A       		.uleb128 0xa
 3263 0211 00       		.byte	0x0
 3264 0212 00       		.byte	0x0
 3265 0213 00       		.byte	0x0
 3266              		.section	.debug_pubnames,"",%progbits
 3267 0000 82000000 		.4byte	0x82
 3268 0004 0200     		.2byte	0x2
 3269 0006 00000000 		.4byte	.Ldebug_info0
 3270 000a 40060000 		.4byte	0x640
 3271 000e 03010000 		.4byte	0x103
 3272 0012 73746F70 		.ascii	"stopTimer1\000"
 3272      54696D65 
 3272      723100
 3273 001d 16010000 		.4byte	0x116
 3274 0021 656E7465 		.ascii	"enterSleepMode\000"
 3274      72536C65 
 3274      65704D6F 
 3274      646500
 3275 0030 29010000 		.4byte	0x129
 3276 0034 73656E64 		.ascii	"sendScore\000"
 3276      53636F72 
 3276      6500
 3277 003e CB030000 		.4byte	0x3cb
 3278 0042 6D6F7665 		.ascii	"moveSnake\000"
 3278      536E616B 
 3278      6500
 3279 004c 64040000 		.4byte	0x464
 3280 0050 706C6179 		.ascii	"playSnake\000"
 3280      536E616B 
 3280      6500
 3281 005a E3050000 		.4byte	0x5e3
 3282 005e 746F6767 		.ascii	"toggle\000"
 3282      6C6500
 3283 0065 F6050000 		.4byte	0x5f6
 3284 0069 636F756E 		.ascii	"count\000"
 3284      7400
 3285 006f 19060000 		.4byte	0x619
ARM GAS  /cygdrive/c/DOCUME~1/witaj/USTAWI~1/Temp/ccGe29Ta.s 			page 77


 3286 0073 6E6F7465 		.ascii	"notes\000"
 3286      7300
 3287 0079 2C060000 		.4byte	0x62c
 3288 007d 6E6F7465 		.ascii	"note\000"
 3288      00
 3289 0082 00000000 		.4byte	0x0
 3290              		.section	.debug_aranges,"",%progbits
 3291 0000 1C000000 		.4byte	0x1c
 3292 0004 0200     		.2byte	0x2
 3293 0006 00000000 		.4byte	.Ldebug_info0
 3294 000a 04       		.byte	0x4
 3295 000b 00       		.byte	0x0
 3296 000c 0000     		.2byte	0x0
 3297 000e 0000     		.2byte	0x0
 3298 0010 00000000 		.4byte	.Ltext0
 3299 0014 EC060000 		.4byte	.Letext0-.Ltext0
 3300 0018 00000000 		.4byte	0x0
 3301 001c 00000000 		.4byte	0x0
 3302              		.section	.debug_ranges,"",%progbits
 3303              	.Ldebug_ranges0:
 3304 0000 C0000000 		.4byte	.LBB6-.Ltext0
 3305 0004 D2000000 		.4byte	.LBE6-.Ltext0
 3306 0008 52010000 		.4byte	.LBB9-.Ltext0
 3307 000c 5C010000 		.4byte	.LBE9-.Ltext0
 3308 0010 00000000 		.4byte	0x0
 3309 0014 00000000 		.4byte	0x0
 3310 0018 DE000000 		.4byte	.LBB7-.Ltext0
 3311 001c 52010000 		.4byte	.LBE7-.Ltext0
 3312 0020 5C010000 		.4byte	.LBB10-.Ltext0
 3313 0024 8E010000 		.4byte	.LBE10-.Ltext0
 3314 0028 00000000 		.4byte	0x0
 3315 002c 00000000 		.4byte	0x0
 3316 0030 DE000000 		.4byte	.LBB8-.Ltext0
 3317 0034 52010000 		.4byte	.LBE8-.Ltext0
 3318 0038 5C010000 		.4byte	.LBB11-.Ltext0
 3319 003c 70010000 		.4byte	.LBE11-.Ltext0
 3320 0040 00000000 		.4byte	0x0
 3321 0044 00000000 		.4byte	0x0
 3322              		.section	.debug_str,"MS",%progbits,1
 3323              	.LASF36:
 3324 0000 61637475 		.ascii	"actualX\000"
 3324      616C5800 
 3325              	.LASF37:
 3326 0008 61637475 		.ascii	"actualY\000"
 3326      616C5900 
 3327              	.LASF44:
 3328 0010 73657442 		.ascii	"setBorder\000"
 3328      6F726465 
 3328      7200
 3329              	.LASF26:
 3330 001a 63686563 		.ascii	"checksum\000"
 3330      6B73756D 
 3330      00
 3331              	.LASF5:
 3332 0023 7369676E 		.ascii	"signed char\000"
 3332      65642063 
 3332      68617200 
ARM GAS  /cygdrive/c/DOCUME~1/witaj/USTAWI~1/Temp/ccGe29Ta.s 			page 78


 3333              	.LASF57:
 3334 002f 736E616B 		.ascii	"snakeTailGuard\000"
 3334      65546169 
 3334      6C477561 
 3334      726400
 3335              	.LASF30:
 3336 003e 6561744E 		.ascii	"eatNoise\000"
 3336      6F697365 
 3336      00
 3337              	.LASF47:
 3338 0047 706C6179 		.ascii	"playSnake\000"
 3338      536E616B 
 3338      6500
 3339              	.LASF33:
 3340 0051 696E6465 		.ascii	"index\000"
 3340      7800
 3341              	.LASF14:
 3342 0057 696E6974 		.ascii	"initTimer1\000"
 3342      54696D65 
 3342      723100
 3343              	.LASF11:
 3344 0062 6C6F6E67 		.ascii	"long long unsigned int\000"
 3344      206C6F6E 
 3344      6720756E 
 3344      7369676E 
 3344      65642069 
 3345              	.LASF9:
 3346 0079 6C6F6E67 		.ascii	"long long int\000"
 3346      206C6F6E 
 3346      6720696E 
 3346      7400
 3347              	.LASF25:
 3348 0087 6E61676C 		.ascii	"naglowek\000"
 3348      6F77656B 
 3348      00
 3349              	.LASF23:
 3350 0090 6E725F70 		.ascii	"nr_pakietu\000"
 3350      616B6965 
 3350      747500
 3351              	.LASF55:
 3352 009b 67616D65 		.ascii	"gameArena\000"
 3352      4172656E 
 3352      6100
 3353              	.LASF58:
 3354 00a5 746F6767 		.ascii	"toggle\000"
 3354      6C6500
 3355              	.LASF0:
 3356 00ac 74553136 		.ascii	"tU16\000"
 3356      00
 3357              	.LASF8:
 3358 00b1 6C6F6E67 		.ascii	"long int\000"
 3358      20696E74 
 3358      00
 3359              	.LASF39:
 3360 00ba 6D6F7665 		.ascii	"moveField\000"
 3360      4669656C 
 3360      6400
ARM GAS  /cygdrive/c/DOCUME~1/witaj/USTAWI~1/Temp/ccGe29Ta.s 			page 79


 3361              	.LASF22:
 3362 00c4 73707261 		.ascii	"sprawdz\000"
 3362      77647A00 
 3363              	.LASF27:
 3364 00cc 70757453 		.ascii	"putSnack\000"
 3364      6E61636B 
 3364      00
 3365              	.LASF34:
 3366 00d5 736E616B 		.ascii	"snakeTailCopy\000"
 3366      65546169 
 3366      6C436F70 
 3366      7900
 3367              	.LASF13:
 3368 00e3 73657446 		.ascii	"setField\000"
 3368      69656C64 
 3368      00
 3369              	.LASF18:
 3370 00ec 6D656D62 		.ascii	"memblock\000"
 3370      6C6F636B 
 3370      00
 3371              	.LASF4:
 3372 00f5 756E7369 		.ascii	"unsigned int\000"
 3372      676E6564 
 3372      20696E74 
 3372      00
 3373              	.LASF49:
 3374 0102 736E616B 		.ascii	"snakeXPos\000"
 3374      6558506F 
 3374      7300
 3375              	.LASF32:
 3376 010c 72657365 		.ascii	"resetSnake\000"
 3376      74536E61 
 3376      6B6500
 3377              	.LASF7:
 3378 0117 6C6F6E67 		.ascii	"long unsigned int\000"
 3378      20756E73 
 3378      69676E65 
 3378      6420696E 
 3378      7400
 3379              	.LASF2:
 3380 0129 73686F72 		.ascii	"short unsigned int\000"
 3380      7420756E 
 3380      7369676E 
 3380      65642069 
 3380      6E7400
 3381              	.LASF53:
 3382 013c 69734F6E 		.ascii	"isOn\000"
 3382      00
 3383              	.LASF42:
 3384 0141 6D6F7665 		.ascii	"moveSnake\000"
 3384      536E616B 
 3384      6500
 3385              	.LASF19:
 3386 014b 726F7A6D 		.ascii	"rozmiar\000"
 3386      69617200 
 3387              	.LASF64:
 3388 0153 2F637967 		.ascii	"/cygdrive/c/Documents and Settings/witaj/Moje dokum"
ARM GAS  /cygdrive/c/DOCUME~1/witaj/USTAWI~1/Temp/ccGe29Ta.s 			page 80


 3388      64726976 
 3388      652F632F 
 3388      446F6375 
 3388      6D656E74 
 3389 0186 656E7479 		.ascii	"enty/GitHub/Snake/src\000"
 3389      2F476974 
 3389      4875622F 
 3389      536E616B 
 3389      652F7372 
 3390              	.LASF50:
 3391 019c 736E616B 		.ascii	"snakeYPos\000"
 3391      6559506F 
 3391      7300
 3392              	.LASF3:
 3393 01a6 74553332 		.ascii	"tU32\000"
 3393      00
 3394              	.LASF21:
 3395 01ab 6272616B 		.ascii	"brak_odpowiedzi\000"
 3395      5F6F6470 
 3395      6F776965 
 3395      647A6900 
 3396              	.LASF16:
 3397 01bb 73746F70 		.ascii	"stopTimer1\000"
 3397      54696D65 
 3397      723100
 3398              	.LASF12:
 3399 01c6 636F6C6F 		.ascii	"color\000"
 3399      7200
 3400              	.LASF38:
 3401 01cc 6D616B65 		.ascii	"makeNoise\000"
 3401      4E6F6973 
 3401      6500
 3402              	.LASF56:
 3403 01d6 736E616B 		.ascii	"snakeTail\000"
 3403      65546169 
 3403      6C00
 3404              	.LASF40:
 3405 01e0 64697265 		.ascii	"direction\000"
 3405      6374696F 
 3405      6E00
 3406              	.LASF51:
 3407 01ea 736E616B 		.ascii	"snakeSize\000"
 3407      6553697A 
 3407      6500
 3408              	.LASF59:
 3409 01f4 636F756E 		.ascii	"count\000"
 3409      7400
 3410              	.LASF61:
 3411 01fa 6E6F7465 		.ascii	"note\000"
 3411      00
 3412              	.LASF41:
 3413 01ff 73656E64 		.ascii	"sendScore\000"
 3413      53636F72 
 3413      6500
 3414              	.LASF48:
 3415 0209 67616D65 		.ascii	"gameStatus\000"
 3415      53746174 
ARM GAS  /cygdrive/c/DOCUME~1/witaj/USTAWI~1/Temp/ccGe29Ta.s 			page 81


 3415      757300
 3416              	.LASF54:
 3417 0214 74696D65 		.ascii	"timeVal\000"
 3417      56616C00 
 3418              	.LASF29:
 3419 021c 77616974 		.ascii	"waitUp\000"
 3419      557000
 3420              	.LASF1:
 3421 0223 756E7369 		.ascii	"unsigned char\000"
 3421      676E6564 
 3421      20636861 
 3421      7200
 3422              	.LASF62:
 3423 0231 474E5520 		.ascii	"GNU C 4.1.1\000"
 3423      4320342E 
 3423      312E3100 
 3424              	.LASF46:
 3425 023d 73746570 		.ascii	"step\000"
 3425      00
 3426              	.LASF6:
 3427 0242 73686F72 		.ascii	"short int\000"
 3427      7420696E 
 3427      7400
 3428              	.LASF15:
 3429 024c 66756E63 		.ascii	"functionAdress\000"
 3429      74696F6E 
 3429      41647265 
 3429      737300
 3430              	.LASF45:
 3431 025b 64726177 		.ascii	"drawArena\000"
 3431      4172656E 
 3431      6100
 3432              	.LASF10:
 3433 0265 63686172 		.ascii	"char\000"
 3433      00
 3434              	.LASF43:
 3435 026a 616E794B 		.ascii	"anyKey\000"
 3435      657900
 3436              	.LASF28:
 3437 0271 736E6163 		.ascii	"snackSet\000"
 3437      6B536574 
 3437      00
 3438              	.LASF24:
 3439 027a 7A6D6965 		.ascii	"zmienna\000"
 3439      6E6E6100 
 3440              	.LASF63:
 3441 0282 736E616B 		.ascii	"snake.c\000"
 3441      652E6300 
 3442              	.LASF35:
 3443 028a 636C6561 		.ascii	"cleanEndOfTail\000"
 3443      6E456E64 
 3443      4F665461 
 3443      696C00
 3444              	.LASF52:
 3445 0299 6C617374 		.ascii	"lastKey\000"
 3445      4B657900 
 3446              	.LASF60:
ARM GAS  /cygdrive/c/DOCUME~1/witaj/USTAWI~1/Temp/ccGe29Ta.s 			page 82


 3447 02a1 6E6F7465 		.ascii	"notes\000"
 3447      7300
 3448              	.LASF20:
 3449 02a7 6C69637A 		.ascii	"liczba_pakietow\000"
 3449      62615F70 
 3449      616B6965 
 3449      746F7700 
 3450              	.LASF31:
 3451 02b7 73746172 		.ascii	"startMusic\000"
 3451      744D7573 
 3451      696300
 3452              	.LASF17:
 3453 02c2 656E7465 		.ascii	"enterSleepMode\000"
 3453      72536C65 
 3453      65704D6F 
 3453      646500
 3454              		.ident	"GCC: (GNU) 4.1.1"
ARM GAS  /cygdrive/c/DOCUME~1/witaj/USTAWI~1/Temp/ccGe29Ta.s 			page 83


DEFINED SYMBOLS
                            *ABS*:00000000 snake.c
/cygdrive/c/DOCUME~1/witaj/USTAWI~1/Temp/ccGe29Ta.s:1      .text:00000000 $t
/cygdrive/c/DOCUME~1/witaj/USTAWI~1/Temp/ccGe29Ta.s:16     .text:00000000 initTimer1
/cygdrive/c/DOCUME~1/witaj/USTAWI~1/Temp/ccGe29Ta.s:89     .text:00000060 $d
/cygdrive/c/DOCUME~1/witaj/USTAWI~1/Temp/ccGe29Ta.s:1374   .bss:00000008 note
/cygdrive/c/DOCUME~1/witaj/USTAWI~1/Temp/ccGe29Ta.s:1360   .data:00000000 notes
/cygdrive/c/DOCUME~1/witaj/USTAWI~1/Temp/ccGe29Ta.s:105    .text:00000084 stopTimer1
/cygdrive/c/DOCUME~1/witaj/USTAWI~1/Temp/ccGe29Ta.s:102    .text:00000084 $t
/cygdrive/c/DOCUME~1/witaj/USTAWI~1/Temp/ccGe29Ta.s:121    .text:0000008c $d
/cygdrive/c/DOCUME~1/witaj/USTAWI~1/Temp/ccGe29Ta.s:129    .text:00000090 enterSleepMode
/cygdrive/c/DOCUME~1/witaj/USTAWI~1/Temp/ccGe29Ta.s:126    .text:00000090 $t
/cygdrive/c/DOCUME~1/witaj/USTAWI~1/Temp/ccGe29Ta.s:145    .text:00000098 $d
/cygdrive/c/DOCUME~1/witaj/USTAWI~1/Temp/ccGe29Ta.s:153    .text:0000009c sendScore
/cygdrive/c/DOCUME~1/witaj/USTAWI~1/Temp/ccGe29Ta.s:150    .text:0000009c $t
/cygdrive/c/DOCUME~1/witaj/USTAWI~1/Temp/ccGe29Ta.s:355    .text:000001a0 putSnack
/cygdrive/c/DOCUME~1/witaj/USTAWI~1/Temp/ccGe29Ta.s:408    .text:000001f0 $d
/cygdrive/c/DOCUME~1/witaj/USTAWI~1/Temp/ccGe29Ta.s:1389   .bss:00000018 gameArena
/cygdrive/c/DOCUME~1/witaj/USTAWI~1/Temp/ccGe29Ta.s:413    .text:000001f8 $t
/cygdrive/c/DOCUME~1/witaj/USTAWI~1/Temp/ccGe29Ta.s:416    .text:000001f8 eatNoise
/cygdrive/c/DOCUME~1/witaj/USTAWI~1/Temp/ccGe29Ta.s:530    .text:0000029c $d
/cygdrive/c/DOCUME~1/witaj/USTAWI~1/Temp/ccGe29Ta.s:1347   .bss:00000000 toggle
/cygdrive/c/DOCUME~1/witaj/USTAWI~1/Temp/ccGe29Ta.s:1353   .bss:00000004 count
/cygdrive/c/DOCUME~1/witaj/USTAWI~1/Temp/ccGe29Ta.s:1380   .bss:0000000e snakeSize
/cygdrive/c/DOCUME~1/witaj/USTAWI~1/Temp/ccGe29Ta.s:543    .text:000002c4 $t
/cygdrive/c/DOCUME~1/witaj/USTAWI~1/Temp/ccGe29Ta.s:546    .text:000002c4 startMusic
/cygdrive/c/DOCUME~1/witaj/USTAWI~1/Temp/ccGe29Ta.s:656    .text:00000360 $d
/cygdrive/c/DOCUME~1/witaj/USTAWI~1/Temp/ccGe29Ta.s:670    .text:00000384 $t
/cygdrive/c/DOCUME~1/witaj/USTAWI~1/Temp/ccGe29Ta.s:673    .text:00000384 resetSnake
/cygdrive/c/DOCUME~1/witaj/USTAWI~1/Temp/ccGe29Ta.s:749    .text:000003e0 $d
/cygdrive/c/DOCUME~1/witaj/USTAWI~1/Temp/ccGe29Ta.s:1393   .bss:00000458 snakeTailGuard
/cygdrive/c/DOCUME~1/witaj/USTAWI~1/Temp/ccGe29Ta.s:1391   .bss:00000418 snakeTail
/cygdrive/c/DOCUME~1/witaj/USTAWI~1/Temp/ccGe29Ta.s:755    .text:000003ec $t
/cygdrive/c/DOCUME~1/witaj/USTAWI~1/Temp/ccGe29Ta.s:758    .text:000003ec moveField
/cygdrive/c/DOCUME~1/witaj/USTAWI~1/Temp/ccGe29Ta.s:989    .text:00000500 $d
/cygdrive/c/DOCUME~1/witaj/USTAWI~1/Temp/ccGe29Ta.s:1376   .bss:0000000c snakeXPos
/cygdrive/c/DOCUME~1/witaj/USTAWI~1/Temp/ccGe29Ta.s:1378   .bss:0000000d snakeYPos
/cygdrive/c/DOCUME~1/witaj/USTAWI~1/Temp/ccGe29Ta.s:1003   .text:0000051c moveSnake
/cygdrive/c/DOCUME~1/witaj/USTAWI~1/Temp/ccGe29Ta.s:1000   .text:0000051c $t
/cygdrive/c/DOCUME~1/witaj/USTAWI~1/Temp/ccGe29Ta.s:1146   .text:000005cc $d
/cygdrive/c/DOCUME~1/witaj/USTAWI~1/Temp/ccGe29Ta.s:1384   .bss:00000010 isOn
/cygdrive/c/DOCUME~1/witaj/USTAWI~1/Temp/ccGe29Ta.s:1157   .text:000005dc playSnake
/cygdrive/c/DOCUME~1/witaj/USTAWI~1/Temp/ccGe29Ta.s:1154   .text:000005dc $t
/cygdrive/c/DOCUME~1/witaj/USTAWI~1/Temp/ccGe29Ta.s:1327   .text:000006c4 $d
/cygdrive/c/DOCUME~1/witaj/USTAWI~1/Temp/ccGe29Ta.s:1382   .bss:0000000f lastKey
/cygdrive/c/DOCUME~1/witaj/USTAWI~1/Temp/ccGe29Ta.s:1387   .bss:00000014 timeVal
/cygdrive/c/DOCUME~1/witaj/USTAWI~1/Temp/ccGe29Ta.s:1356   .bss:00000008 $d

UNDEFINED SYMBOLS
__divsi3
uart1GetCh
osSleep
uart1SendChar
setLED
rand
setBuzzer
__umodsi3
ARM GAS  /cygdrive/c/DOCUME~1/witaj/USTAWI~1/Temp/ccGe29Ta.s 			page 84


__modsi3
lcdClrscr
checkKey
lcdRect
